(lp0
(dp1
S'power'
p2
I-35
sS'ESSID'
p3
S'The House of Fun'
p4
sS'BSSID'
p5
S'00:22:3F:17:2F:A4'
p6
sS'point'
p7
(I37
I385
tp8
sa(dp9
g2
I-35
sg3
S'The House of Fun'
p10
sg5
S'00:22:3F:17:2F:A4'
p11
sg7
(I61
I384
tp12
sa(dp13
g2
I-35
sg3
S'The House of Fun'
p14
sg5
S'00:22:3F:17:2F:A4'
p15
sg7
(I93
I382
tp16
sa(dp17
g2
I-35
sg3
S'The House of Fun'
p18
sg5
S'00:22:3F:17:2F:A4'
p19
sg7
(I138
I386
tp20
sa(dp21
g2
I-81
sg3
S'The House of Fun'
p22
sg5
S'00:22:3F:17:2F:A4'
p23
sg7
(I609
I391
tp24
sa(dp25
g2
I-81
sg3
S'The House of Fun'
p26
sg5
S'00:22:3F:17:2F:A4'
p27
sg7
(I1137
I403
tp28
sa(dp29
g2
I-81
sg3
S'The House of Fun'
p30
sg5
S'00:22:3F:17:2F:A4'
p31
sg7
(I1324
I401
tp32
sa.