(lp0
(dp1
S'power'
p2
I-83
sS'ESSID'
p3
S'ECS-WLAN'
p4
sS'BSSID'
p5
S'C8:4C:75:D1:FB:D1'
p6
sS'point'
p7
(I1134
I30
tp8
sa(dp9
g2
I-83
sg3
S'eduroam'
p10
sg5
S'C8:4C:75:D1:FB:D0'
p11
sg7
g8
sa(dp12
g2
I-79
sg3
S'eduroam'
p13
sg5
S'C8:4C:75:D1:FB:D0'
p14
sg7
(I1180
I32
tp15
sa(dp16
g2
I-79
sg3
S'ECS-WLAN'
p17
sg5
S'C8:4C:75:D1:FB:D1'
p18
sg7
g15
sa(dp19
g2
I-77
sg3
S'ECS-WLAN'
p20
sg5
S'C8:4C:75:D1:FB:D1'
p21
sg7
(I1179
I78
tp22
sa(dp23
g2
I-79
sg3
S'eduroam'
p24
sg5
S'C8:4C:75:D1:FB:D0'
p25
sg7
g22
sa(dp26
g2
I-77
sg3
S'ECS-WLAN'
p27
sg5
S'C8:4C:75:D1:FB:D1'
p28
sg7
(I1136
I83
tp29
sa(dp30
g2
I-79
sg3
S'eduroam'
p31
sg5
S'C8:4C:75:D1:FB:D0'
p32
sg7
g29
sa(dp33
g2
I-77
sg3
S'ECS-WLAN'
p34
sg5
S'C8:4C:75:D1:FB:D1'
p35
sg7
(I1144
I148
tp36
sa(dp37
g2
I-79
sg3
S'eduroam'
p38
sg5
S'C8:4C:75:D1:FB:D0'
p39
sg7
g36
sa(dp40
g2
I-77
sg3
S'ECS-WLAN'
p41
sg5
S'C8:4C:75:D1:FB:D1'
p42
sg7
(I1139
I191
tp43
sa(dp44
g2
I-79
sg3
S'eduroam'
p45
sg5
S'C8:4C:75:D1:FB:D0'
p46
sg7
g43
sa(dp47
g2
I-87
sg3
S'eduroam'
p48
sg5
S'C8:4C:75:D1:FB:D0'
p49
sg7
(I1136
I301
tp50
sa(dp51
g2
I-87
sg3
S'ECS-WLAN'
p52
sg5
S'C8:4C:75:D1:FB:D1'
p53
sg7
g50
sa(dp54
g2
I-87
sg3
S'eduroam'
p55
sg5
S'C8:4C:75:D1:FB:D0'
p56
sg7
(I1238
I303
tp57
sa(dp58
g2
I-87
sg3
S'ECS-WLAN'
p59
sg5
S'C8:4C:75:D1:FB:D1'
p60
sg7
g57
sa(dp61
g2
I-87
sg3
S'eduroam'
p62
sg5
S'C8:4C:75:D1:FB:D0'
p63
sg7
(I1186
I299
tp64
sa(dp65
g2
I-87
sg3
S'ECS-WLAN'
p66
sg5
S'C8:4C:75:D1:FB:D1'
p67
sg7
g64
sa(dp68
g2
I-83
sg3
S'eduroam'
p69
sg5
S'C8:4C:75:D1:FB:D0'
p70
sg7
(I1133
I248
tp71
sa(dp72
g2
I-85
sg3
S'ECS-WLAN'
p73
sg5
S'C8:4C:75:D1:FB:D1'
p74
sg7
g71
sa(dp75
g2
I-83
sg3
S'eduroam'
p76
sg5
S'C8:4C:75:D1:FB:D0'
p77
sg7
(I1249
I219
tp78
sa(dp79
g2
I-85
sg3
S'ECS-WLAN'
p80
sg5
S'C8:4C:75:D1:FB:D1'
p81
sg7
g78
sa(dp82
g2
I-83
sg3
S'eduroam'
p83
sg5
S'C8:4C:75:D1:FB:D0'
p84
sg7
(I1349
I184
tp85
sa(dp86
g2
I-85
sg3
S'ECS-WLAN'
p87
sg5
S'C8:4C:75:D1:FB:D1'
p88
sg7
g85
sa(dp89
g2
I-83
sg3
S'eduroam'
p90
sg5
S'C8:4C:75:D1:FB:D0'
p91
sg7
(I1360
I125
tp92
sa(dp93
g2
I-85
sg3
S'ECS-WLAN'
p94
sg5
S'C8:4C:75:D1:FB:D1'
p95
sg7
g92
sa(dp96
g2
I-77
sg3
S'ECS-WLAN'
p97
sg5
S'C8:4C:75:D1:FB:D1'
p98
sg7
(I1211
I118
tp99
sa(dp100
g2
I-77
sg3
S'eduroam'
p101
sg5
S'C8:4C:75:D1:FB:D0'
p102
sg7
g99
sa(dp103
g2
I-77
sg3
S'ECS-WLAN'
p104
sg5
S'C8:4C:75:D1:FB:D1'
p105
sg7
(I1285
I113
tp106
sa(dp107
g2
I-77
sg3
S'eduroam'
p108
sg5
S'C8:4C:75:D1:FB:D0'
p109
sg7
g106
sa(dp110
g2
I-77
sg3
S'ECS-WLAN'
p111
sg5
S'C8:4C:75:D1:FB:D1'
p112
sg7
(I1350
I298
tp113
sa(dp114
g2
I-77
sg3
S'eduroam'
p115
sg5
S'C8:4C:75:D1:FB:D0'
p116
sg7
g113
sa(dp117
g2
I-77
sg3
S'ECS-WLAN'
p118
sg5
S'C8:4C:75:D1:FB:D1'
p119
sg7
(I1299
I303
tp120
sa(dp121
g2
I-77
sg3
S'eduroam'
p122
sg5
S'C8:4C:75:D1:FB:D0'
p123
sg7
g120
sa(dp124
g2
I-77
sg3
S'ECS-WLAN'
p125
sg5
S'C8:4C:75:D1:FB:D1'
p126
sg7
(I1295
I433
tp127
sa(dp128
g2
I-77
sg3
S'eduroam'
p129
sg5
S'C8:4C:75:D1:FB:D0'
p130
sg7
g127
sa(dp131
g2
I-67
sg3
S'ECS-WLAN'
p132
sg5
S'C8:4C:75:60:9B:E1'
p133
sg7
(I1309
I519
tp134
sa(dp135
g2
I-85
sg3
S'ECS-WLAN'
p136
sg5
S'54:75:D0:A4:C1:41'
p137
sg7
g134
sa(dp138
g2
I-87
sg3
S'ECS-WLAN'
p139
sg5
S'A0:CF:5B:0F:96:21'
p140
sg7
g134
sa(dp141
g2
I-89
sg3
S'ECS-WLAN'
p142
sg5
S'54:75:D0:A4:D8:81'
p143
sg7
g134
sa(dp144
g2
I-67
sg3
S'ECS-WLAN'
p145
sg5
S'C8:4C:75:60:9B:E1'
p146
sg7
(I1263
I521
tp147
sa(dp148
g2
I-85
sg3
S'ECS-WLAN'
p149
sg5
S'54:75:D0:A4:C1:41'
p150
sg7
g147
sa(dp151
g2
I-87
sg3
S'ECS-WLAN'
p152
sg5
S'A0:CF:5B:0F:96:21'
p153
sg7
g147
sa(dp154
g2
I-89
sg3
S'ECS-WLAN'
p155
sg5
S'54:75:D0:A4:D8:81'
p156
sg7
g147
sa(dp157
g2
I-67
sg3
S'ECS-WLAN'
p158
sg5
S'C8:4C:75:60:9B:E1'
p159
sg7
(I1149
I513
tp160
sa(dp161
g2
I-85
sg3
S'ECS-WLAN'
p162
sg5
S'54:75:D0:A4:C1:41'
p163
sg7
g160
sa(dp164
g2
I-87
sg3
S'ECS-WLAN'
p165
sg5
S'A0:CF:5B:0F:96:21'
p166
sg7
g160
sa(dp167
g2
I-89
sg3
S'ECS-WLAN'
p168
sg5
S'54:75:D0:A4:D8:81'
p169
sg7
g160
sa(dp170
g2
I-67
sg3
S'ECS-WLAN'
p171
sg5
S'C8:4C:75:60:9B:E1'
p172
sg7
(I1090
I520
tp173
sa(dp174
g2
I-85
sg3
S'ECS-WLAN'
p175
sg5
S'54:75:D0:A4:C1:41'
p176
sg7
g173
sa(dp177
g2
I-87
sg3
S'ECS-WLAN'
p178
sg5
S'A0:CF:5B:0F:96:21'
p179
sg7
g173
sa(dp180
g2
I-89
sg3
S'ECS-WLAN'
p181
sg5
S'54:75:D0:A4:D8:81'
p182
sg7
g173
sa(dp183
g2
I-67
sg3
S'ECS-WLAN'
p184
sg5
S'C8:4C:75:60:9B:E1'
p185
sg7
(I1048
I513
tp186
sa(dp187
g2
I-85
sg3
S'ECS-WLAN'
p188
sg5
S'54:75:D0:A4:C1:41'
p189
sg7
g186
sa(dp190
g2
I-87
sg3
S'ECS-WLAN'
p191
sg5
S'A0:CF:5B:0F:96:21'
p192
sg7
g186
sa(dp193
g2
I-89
sg3
S'ECS-WLAN'
p194
sg5
S'54:75:D0:A4:D8:81'
p195
sg7
g186
sa(dp196
g2
I-67
sg3
S'ECS-WLAN'
p197
sg5
S'C8:4C:75:60:9B:E1'
p198
sg7
(I1018
I476
tp199
sa(dp200
g2
I-85
sg3
S'ECS-WLAN'
p201
sg5
S'54:75:D0:A4:C1:41'
p202
sg7
g199
sa(dp203
g2
I-87
sg3
S'ECS-WLAN'
p204
sg5
S'A0:CF:5B:0F:96:21'
p205
sg7
g199
sa(dp206
g2
I-89
sg3
S'ECS-WLAN'
p207
sg5
S'54:75:D0:A4:D8:81'
p208
sg7
g199
sa(dp209
g2
I-67
sg3
S'ECS-WLAN'
p210
sg5
S'C8:4C:75:60:9B:E1'
p211
sg7
(I1004
I512
tp212
sa(dp213
g2
I-85
sg3
S'ECS-WLAN'
p214
sg5
S'54:75:D0:A4:C1:41'
p215
sg7
g212
sa(dp216
g2
I-87
sg3
S'ECS-WLAN'
p217
sg5
S'A0:CF:5B:0F:96:21'
p218
sg7
g212
sa(dp219
g2
I-89
sg3
S'ECS-WLAN'
p220
sg5
S'54:75:D0:A4:D8:81'
p221
sg7
g212
sa(dp222
g2
I-65
sg3
S'eduroam'
p223
sg5
S'54:75:D0:A4:C1:40'
p224
sg7
(I952
I511
tp225
sa(dp226
g2
I-65
sg3
S'ECS-WLAN'
p227
sg5
S'54:75:D0:A4:C1:41'
p228
sg7
g225
sa(dp229
g2
I-65
sg3
S'eduroam'
p230
sg5
S'C8:4C:75:60:9B:E0'
p231
sg7
g225
sa(dp232
g2
I-65
sg3
S'ECS-WLAN'
p233
sg5
S'C8:4C:75:60:9B:E1'
p234
sg7
g225
sa(dp235
g2
I-77
sg3
S'ECS-WLAN'
p236
sg5
S'C8:4C:75:D1:FB:D1'
p237
sg7
g225
sa(dp238
g2
I-79
sg3
S'eduroam'
p239
sg5
S'C8:4C:75:D1:FB:D0'
p240
sg7
g225
sa(dp241
g2
I-89
sg3
S'ECS-WLAN'
p242
sg5
S'54:75:D0:A4:D8:81'
p243
sg7
g225
sa(dp244
g2
I-91
sg3
S'eduroam'
p245
sg5
S'C8:4C:75:D1:FD:B0'
p246
sg7
g225
sa(dp247
g2
I-65
sg3
S'eduroam'
p248
sg5
S'54:75:D0:A4:C1:40'
p249
sg7
(I899
I516
tp250
sa(dp251
g2
I-65
sg3
S'ECS-WLAN'
p252
sg5
S'54:75:D0:A4:C1:41'
p253
sg7
g250
sa(dp254
g2
I-65
sg3
S'eduroam'
p255
sg5
S'C8:4C:75:60:9B:E0'
p256
sg7
g250
sa(dp257
g2
I-65
sg3
S'ECS-WLAN'
p258
sg5
S'C8:4C:75:60:9B:E1'
p259
sg7
g250
sa(dp260
g2
I-77
sg3
S'ECS-WLAN'
p261
sg5
S'C8:4C:75:D1:FB:D1'
p262
sg7
g250
sa(dp263
g2
I-79
sg3
S'eduroam'
p264
sg5
S'C8:4C:75:D1:FB:D0'
p265
sg7
g250
sa(dp266
g2
I-89
sg3
S'ECS-WLAN'
p267
sg5
S'54:75:D0:A4:D8:81'
p268
sg7
g250
sa(dp269
g2
I-91
sg3
S'eduroam'
p270
sg5
S'C8:4C:75:D1:FD:B0'
p271
sg7
g250
sa(dp272
g2
I-65
sg3
S'eduroam'
p273
sg5
S'54:75:D0:A4:C1:40'
p274
sg7
(I845
I519
tp275
sa(dp276
g2
I-65
sg3
S'ECS-WLAN'
p277
sg5
S'54:75:D0:A4:C1:41'
p278
sg7
g275
sa(dp279
g2
I-65
sg3
S'eduroam'
p280
sg5
S'C8:4C:75:60:9B:E0'
p281
sg7
g275
sa(dp282
g2
I-65
sg3
S'ECS-WLAN'
p283
sg5
S'C8:4C:75:60:9B:E1'
p284
sg7
g275
sa(dp285
g2
I-77
sg3
S'ECS-WLAN'
p286
sg5
S'C8:4C:75:D1:FB:D1'
p287
sg7
g275
sa(dp288
g2
I-79
sg3
S'eduroam'
p289
sg5
S'C8:4C:75:D1:FB:D0'
p290
sg7
g275
sa(dp291
g2
I-89
sg3
S'ECS-WLAN'
p292
sg5
S'54:75:D0:A4:D8:81'
p293
sg7
g275
sa(dp294
g2
I-91
sg3
S'eduroam'
p295
sg5
S'C8:4C:75:D1:FD:B0'
p296
sg7
g275
sa(dp297
g2
I-65
sg3
S'eduroam'
p298
sg5
S'54:75:D0:A4:C1:40'
p299
sg7
(I793
I514
tp300
sa(dp301
g2
I-65
sg3
S'ECS-WLAN'
p302
sg5
S'54:75:D0:A4:C1:41'
p303
sg7
g300
sa(dp304
g2
I-65
sg3
S'eduroam'
p305
sg5
S'C8:4C:75:60:9B:E0'
p306
sg7
g300
sa(dp307
g2
I-65
sg3
S'ECS-WLAN'
p308
sg5
S'C8:4C:75:60:9B:E1'
p309
sg7
g300
sa(dp310
g2
I-77
sg3
S'ECS-WLAN'
p311
sg5
S'C8:4C:75:D1:FB:D1'
p312
sg7
g300
sa(dp313
g2
I-79
sg3
S'eduroam'
p314
sg5
S'C8:4C:75:D1:FB:D0'
p315
sg7
g300
sa(dp316
g2
I-89
sg3
S'ECS-WLAN'
p317
sg5
S'54:75:D0:A4:D8:81'
p318
sg7
g300
sa(dp319
g2
I-91
sg3
S'eduroam'
p320
sg5
S'C8:4C:75:D1:FD:B0'
p321
sg7
g300
sa(dp322
g2
I-65
sg3
S'eduroam'
p323
sg5
S'54:75:D0:A4:C1:40'
p324
sg7
(I741
I558
tp325
sa(dp326
g2
I-65
sg3
S'ECS-WLAN'
p327
sg5
S'54:75:D0:A4:C1:41'
p328
sg7
g325
sa(dp329
g2
I-65
sg3
S'eduroam'
p330
sg5
S'C8:4C:75:60:9B:E0'
p331
sg7
g325
sa(dp332
g2
I-65
sg3
S'ECS-WLAN'
p333
sg5
S'C8:4C:75:60:9B:E1'
p334
sg7
g325
sa(dp335
g2
I-77
sg3
S'ECS-WLAN'
p336
sg5
S'C8:4C:75:D1:FB:D1'
p337
sg7
g325
sa(dp338
g2
I-79
sg3
S'eduroam'
p339
sg5
S'C8:4C:75:D1:FB:D0'
p340
sg7
g325
sa(dp341
g2
I-89
sg3
S'ECS-WLAN'
p342
sg5
S'54:75:D0:A4:D8:81'
p343
sg7
g325
sa(dp344
g2
I-91
sg3
S'eduroam'
p345
sg5
S'C8:4C:75:D1:FD:B0'
p346
sg7
g325
sa(dp347
g2
I-65
sg3
S'eduroam'
p348
sg5
S'54:75:D0:A4:C1:40'
p349
sg7
(I709
I557
tp350
sa(dp351
g2
I-65
sg3
S'ECS-WLAN'
p352
sg5
S'54:75:D0:A4:C1:41'
p353
sg7
g350
sa(dp354
g2
I-65
sg3
S'eduroam'
p355
sg5
S'C8:4C:75:60:9B:E0'
p356
sg7
g350
sa(dp357
g2
I-65
sg3
S'ECS-WLAN'
p358
sg5
S'C8:4C:75:60:9B:E1'
p359
sg7
g350
sa(dp360
g2
I-77
sg3
S'ECS-WLAN'
p361
sg5
S'C8:4C:75:D1:FB:D1'
p362
sg7
g350
sa(dp363
g2
I-79
sg3
S'eduroam'
p364
sg5
S'C8:4C:75:D1:FB:D0'
p365
sg7
g350
sa(dp366
g2
I-89
sg3
S'ECS-WLAN'
p367
sg5
S'54:75:D0:A4:D8:81'
p368
sg7
g350
sa(dp369
g2
I-91
sg3
S'eduroam'
p370
sg5
S'C8:4C:75:D1:FD:B0'
p371
sg7
g350
sa(dp372
g2
I-65
sg3
S'eduroam'
p373
sg5
S'54:75:D0:A4:C1:40'
p374
sg7
(I712
I507
tp375
sa(dp376
g2
I-65
sg3
S'ECS-WLAN'
p377
sg5
S'54:75:D0:A4:C1:41'
p378
sg7
g375
sa(dp379
g2
I-65
sg3
S'eduroam'
p380
sg5
S'C8:4C:75:60:9B:E0'
p381
sg7
g375
sa(dp382
g2
I-65
sg3
S'ECS-WLAN'
p383
sg5
S'C8:4C:75:60:9B:E1'
p384
sg7
g375
sa(dp385
g2
I-77
sg3
S'ECS-WLAN'
p386
sg5
S'C8:4C:75:D1:FB:D1'
p387
sg7
g375
sa(dp388
g2
I-79
sg3
S'eduroam'
p389
sg5
S'C8:4C:75:D1:FB:D0'
p390
sg7
g375
sa(dp391
g2
I-55
sg3
S'ECS-WLAN'
p392
sg5
S'C8:4C:75:D1:FB:D1'
p393
sg7
(I751
I510
tp394
sa(dp395
g2
I-55
sg3
S'eduroam'
p396
sg5
S'C8:4C:75:D1:FB:D0'
p397
sg7
g394
sa(dp398
g2
I-55
sg3
S'eduroam'
p399
sg5
S'54:75:D0:A4:C1:40'
p400
sg7
g394
sa(dp401
g2
I-57
sg3
S'ECS-WLAN'
p402
sg5
S'54:75:D0:A4:C1:41'
p403
sg7
g394
sa(dp404
g2
I-73
sg3
S'ECS-WLAN'
p405
sg5
S'C8:4C:75:60:9B:E1'
p406
sg7
g394
sa(dp407
g2
I-75
sg3
S'ECS-WLAN'
p408
sg5
S'54:75:D0:A4:D8:81'
p409
sg7
g394
sa(dp410
g2
I-75
sg3
S'eduroam'
p411
sg5
S'C8:4C:75:60:9B:E0'
p412
sg7
g394
sa(dp413
g2
I-87
sg3
S'eduroam'
p414
sg5
S'54:75:D0:A4:CD:D0'
p415
sg7
g394
sa(dp416
g2
I-87
sg3
S'ECS-WLAN'
p417
sg5
S'54:75:D0:A4:CD:D1'
p418
sg7
g394
sa(dp419
g2
I-89
sg3
S'eduroam'
p420
sg5
S'C8:4C:75:D1:FD:B0'
p421
sg7
g394
sa(dp422
g2
I-91
sg3
S'ECS-WLAN'
p423
sg5
S'C8:4C:75:D1:FD:B1'
p424
sg7
g394
sa(dp425
g2
I-55
sg3
S'ECS-WLAN'
p426
sg5
S'C8:4C:75:D1:FB:D1'
p427
sg7
(I747
I454
tp428
sa(dp429
g2
I-55
sg3
S'eduroam'
p430
sg5
S'C8:4C:75:D1:FB:D0'
p431
sg7
g428
sa(dp432
g2
I-55
sg3
S'eduroam'
p433
sg5
S'54:75:D0:A4:C1:40'
p434
sg7
g428
sa(dp435
g2
I-57
sg3
S'ECS-WLAN'
p436
sg5
S'54:75:D0:A4:C1:41'
p437
sg7
g428
sa(dp438
g2
I-73
sg3
S'ECS-WLAN'
p439
sg5
S'C8:4C:75:60:9B:E1'
p440
sg7
g428
sa(dp441
g2
I-75
sg3
S'eduroam'
p442
sg5
S'C8:4C:75:60:9B:E0'
p443
sg7
g428
sa(dp444
g2
I-77
sg3
S'ECS-WLAN'
p445
sg5
S'54:75:D0:A4:D8:81'
p446
sg7
g428
sa(dp447
g2
I-87
sg3
S'eduroam'
p448
sg5
S'54:75:D0:A4:CD:D0'
p449
sg7
g428
sa(dp450
g2
I-87
sg3
S'ECS-WLAN'
p451
sg5
S'54:75:D0:A4:CD:D1'
p452
sg7
g428
sa(dp453
g2
I-89
sg3
S'eduroam'
p454
sg5
S'C8:4C:75:D1:FD:B0'
p455
sg7
g428
sa(dp456
g2
I-91
sg3
S'ECS-WLAN'
p457
sg5
S'C8:4C:75:D1:FD:B1'
p458
sg7
g428
sa(dp459
g2
I-55
sg3
S'ECS-WLAN'
p460
sg5
S'C8:4C:75:D1:FB:D1'
p461
sg7
(I732
I396
tp462
sa(dp463
g2
I-55
sg3
S'eduroam'
p464
sg5
S'C8:4C:75:D1:FB:D0'
p465
sg7
g462
sa(dp466
g2
I-55
sg3
S'eduroam'
p467
sg5
S'54:75:D0:A4:C1:40'
p468
sg7
g462
sa(dp469
g2
I-57
sg3
S'ECS-WLAN'
p470
sg5
S'54:75:D0:A4:C1:41'
p471
sg7
g462
sa(dp472
g2
I-73
sg3
S'ECS-WLAN'
p473
sg5
S'C8:4C:75:60:9B:E1'
p474
sg7
g462
sa(dp475
g2
I-75
sg3
S'eduroam'
p476
sg5
S'C8:4C:75:60:9B:E0'
p477
sg7
g462
sa(dp478
g2
I-77
sg3
S'ECS-WLAN'
p479
sg5
S'54:75:D0:A4:D8:81'
p480
sg7
g462
sa(dp481
g2
I-87
sg3
S'eduroam'
p482
sg5
S'54:75:D0:A4:CD:D0'
p483
sg7
g462
sa(dp484
g2
I-87
sg3
S'ECS-WLAN'
p485
sg5
S'54:75:D0:A4:CD:D1'
p486
sg7
g462
sa(dp487
g2
I-89
sg3
S'eduroam'
p488
sg5
S'C8:4C:75:D1:FD:B0'
p489
sg7
g462
sa(dp490
g2
I-91
sg3
S'ECS-WLAN'
p491
sg5
S'C8:4C:75:D1:FD:B1'
p492
sg7
g462
sa(dp493
g2
I-55
sg3
S'ECS-WLAN'
p494
sg5
S'C8:4C:75:D1:FB:D1'
p495
sg7
(I740
I341
tp496
sa(dp497
g2
I-55
sg3
S'eduroam'
p498
sg5
S'C8:4C:75:D1:FB:D0'
p499
sg7
g496
sa(dp500
g2
I-55
sg3
S'eduroam'
p501
sg5
S'54:75:D0:A4:C1:40'
p502
sg7
g496
sa(dp503
g2
I-57
sg3
S'ECS-WLAN'
p504
sg5
S'54:75:D0:A4:C1:41'
p505
sg7
g496
sa(dp506
g2
I-73
sg3
S'ECS-WLAN'
p507
sg5
S'C8:4C:75:60:9B:E1'
p508
sg7
g496
sa(dp509
g2
I-75
sg3
S'eduroam'
p510
sg5
S'C8:4C:75:60:9B:E0'
p511
sg7
g496
sa(dp512
g2
I-77
sg3
S'ECS-WLAN'
p513
sg5
S'54:75:D0:A4:D8:81'
p514
sg7
g496
sa(dp515
g2
I-87
sg3
S'eduroam'
p516
sg5
S'54:75:D0:A4:CD:D0'
p517
sg7
g496
sa(dp518
g2
I-87
sg3
S'ECS-WLAN'
p519
sg5
S'54:75:D0:A4:CD:D1'
p520
sg7
g496
sa(dp521
g2
I-89
sg3
S'eduroam'
p522
sg5
S'C8:4C:75:D1:FD:B0'
p523
sg7
g496
sa(dp524
g2
I-91
sg3
S'ECS-WLAN'
p525
sg5
S'C8:4C:75:D1:FD:B1'
p526
sg7
g496
sa(dp527
g2
I-55
sg3
S'ECS-WLAN'
p528
sg5
S'C8:4C:75:D1:FB:D1'
p529
sg7
(I715
I317
tp530
sa(dp531
g2
I-55
sg3
S'eduroam'
p532
sg5
S'C8:4C:75:D1:FB:D0'
p533
sg7
g530
sa(dp534
g2
I-55
sg3
S'eduroam'
p535
sg5
S'54:75:D0:A4:C1:40'
p536
sg7
g530
sa(dp537
g2
I-57
sg3
S'ECS-WLAN'
p538
sg5
S'54:75:D0:A4:C1:41'
p539
sg7
g530
sa(dp540
g2
I-73
sg3
S'ECS-WLAN'
p541
sg5
S'C8:4C:75:60:9B:E1'
p542
sg7
g530
sa(dp543
g2
I-75
sg3
S'eduroam'
p544
sg5
S'C8:4C:75:60:9B:E0'
p545
sg7
g530
sa(dp546
g2
I-77
sg3
S'ECS-WLAN'
p547
sg5
S'54:75:D0:A4:D8:81'
p548
sg7
g530
sa(dp549
g2
I-87
sg3
S'eduroam'
p550
sg5
S'54:75:D0:A4:CD:D0'
p551
sg7
g530
sa(dp552
g2
I-87
sg3
S'ECS-WLAN'
p553
sg5
S'54:75:D0:A4:CD:D1'
p554
sg7
g530
sa(dp555
g2
I-89
sg3
S'eduroam'
p556
sg5
S'C8:4C:75:D1:FD:B0'
p557
sg7
g530
sa(dp558
g2
I-91
sg3
S'ECS-WLAN'
p559
sg5
S'C8:4C:75:D1:FD:B1'
p560
sg7
g530
sa(dp561
g2
I-55
sg3
S'ECS-WLAN'
p562
sg5
S'C8:4C:75:D1:FB:D1'
p563
sg7
(I704
I369
tp564
sa(dp565
g2
I-55
sg3
S'eduroam'
p566
sg5
S'C8:4C:75:D1:FB:D0'
p567
sg7
g564
sa(dp568
g2
I-55
sg3
S'eduroam'
p569
sg5
S'54:75:D0:A4:C1:40'
p570
sg7
g564
sa(dp571
g2
I-57
sg3
S'ECS-WLAN'
p572
sg5
S'54:75:D0:A4:C1:41'
p573
sg7
g564
sa(dp574
g2
I-73
sg3
S'ECS-WLAN'
p575
sg5
S'C8:4C:75:60:9B:E1'
p576
sg7
g564
sa(dp577
g2
I-75
sg3
S'eduroam'
p578
sg5
S'C8:4C:75:60:9B:E0'
p579
sg7
g564
sa(dp580
g2
I-77
sg3
S'ECS-WLAN'
p581
sg5
S'54:75:D0:A4:D8:81'
p582
sg7
g564
sa(dp583
g2
I-87
sg3
S'eduroam'
p584
sg5
S'54:75:D0:A4:CD:D0'
p585
sg7
g564
sa(dp586
g2
I-87
sg3
S'ECS-WLAN'
p587
sg5
S'54:75:D0:A4:CD:D1'
p588
sg7
g564
sa(dp589
g2
I-89
sg3
S'eduroam'
p590
sg5
S'C8:4C:75:D1:FD:B0'
p591
sg7
g564
sa(dp592
g2
I-91
sg3
S'ECS-WLAN'
p593
sg5
S'C8:4C:75:D1:FD:B1'
p594
sg7
g564
sa(dp595
g2
I-55
sg3
S'ECS-WLAN'
p596
sg5
S'C8:4C:75:D1:FB:D1'
p597
sg7
(I700
I428
tp598
sa(dp599
g2
I-55
sg3
S'eduroam'
p600
sg5
S'C8:4C:75:D1:FB:D0'
p601
sg7
g598
sa(dp602
g2
I-55
sg3
S'eduroam'
p603
sg5
S'54:75:D0:A4:C1:40'
p604
sg7
g598
sa(dp605
g2
I-57
sg3
S'ECS-WLAN'
p606
sg5
S'54:75:D0:A4:C1:41'
p607
sg7
g598
sa(dp608
g2
I-73
sg3
S'ECS-WLAN'
p609
sg5
S'C8:4C:75:60:9B:E1'
p610
sg7
g598
sa(dp611
g2
I-75
sg3
S'eduroam'
p612
sg5
S'C8:4C:75:60:9B:E0'
p613
sg7
g598
sa(dp614
g2
I-77
sg3
S'ECS-WLAN'
p615
sg5
S'54:75:D0:A4:D8:81'
p616
sg7
g598
sa(dp617
g2
I-87
sg3
S'eduroam'
p618
sg5
S'54:75:D0:A4:CD:D0'
p619
sg7
g598
sa(dp620
g2
I-87
sg3
S'ECS-WLAN'
p621
sg5
S'54:75:D0:A4:CD:D1'
p622
sg7
g598
sa(dp623
g2
I-89
sg3
S'eduroam'
p624
sg5
S'C8:4C:75:D1:FD:B0'
p625
sg7
g598
sa(dp626
g2
I-91
sg3
S'ECS-WLAN'
p627
sg5
S'C8:4C:75:D1:FD:B1'
p628
sg7
g598
sa(dp629
g2
I-55
sg3
S'ECS-WLAN'
p630
sg5
S'C8:4C:75:D1:FB:D1'
p631
sg7
(I681
I500
tp632
sa(dp633
g2
I-55
sg3
S'eduroam'
p634
sg5
S'C8:4C:75:D1:FB:D0'
p635
sg7
g632
sa(dp636
g2
I-55
sg3
S'eduroam'
p637
sg5
S'54:75:D0:A4:C1:40'
p638
sg7
g632
sa(dp639
g2
I-57
sg3
S'ECS-WLAN'
p640
sg5
S'54:75:D0:A4:C1:41'
p641
sg7
g632
sa(dp642
g2
I-73
sg3
S'ECS-WLAN'
p643
sg5
S'C8:4C:75:60:9B:E1'
p644
sg7
g632
sa(dp645
g2
I-75
sg3
S'eduroam'
p646
sg5
S'C8:4C:75:60:9B:E0'
p647
sg7
g632
sa(dp648
g2
I-77
sg3
S'ECS-WLAN'
p649
sg5
S'54:75:D0:A4:D8:81'
p650
sg7
g632
sa(dp651
g2
I-87
sg3
S'ECS-WLAN'
p652
sg5
S'54:75:D0:A4:CD:D1'
p653
sg7
g632
sa(dp654
g2
I-91
sg3
S'ECS-WLAN'
p655
sg5
S'C8:4C:75:D1:FD:B1'
p656
sg7
g632
sa(dp657
g2
I-59
sg3
S'eduroam'
p658
sg5
S'54:75:D0:A4:C1:40'
p659
sg7
(I684
I530
tp660
sa(dp661
g2
I-59
sg3
S'ECS-WLAN'
p662
sg5
S'54:75:D0:A4:C1:41'
p663
sg7
g660
sa(dp664
g2
I-61
sg3
S'eduroam'
p665
sg5
S'C8:4C:75:D1:FB:D0'
p666
sg7
g660
sa(dp667
g2
I-63
sg3
S'ECS-WLAN'
p668
sg5
S'C8:4C:75:D1:FB:D1'
p669
sg7
g660
sa(dp670
g2
I-75
sg3
S'ECS-WLAN'
p671
sg5
S'54:75:D0:A4:D8:81'
p672
sg7
g660
sa(dp673
g2
I-75
sg3
S'ECS-WLAN'
p674
sg5
S'C8:4C:75:60:9B:E1'
p675
sg7
g660
sa(dp676
g2
I-75
sg3
S'eduroam'
p677
sg5
S'C8:4C:75:60:9B:E0'
p678
sg7
g660
sa(dp679
g2
I-59
sg3
S'eduroam'
p680
sg5
S'54:75:D0:A4:C1:40'
p681
sg7
(I653
I524
tp682
sa(dp683
g2
I-59
sg3
S'ECS-WLAN'
p684
sg5
S'54:75:D0:A4:C1:41'
p685
sg7
g682
sa(dp686
g2
I-61
sg3
S'eduroam'
p687
sg5
S'C8:4C:75:D1:FB:D0'
p688
sg7
g682
sa(dp689
g2
I-63
sg3
S'ECS-WLAN'
p690
sg5
S'C8:4C:75:D1:FB:D1'
p691
sg7
g682
sa(dp692
g2
I-75
sg3
S'ECS-WLAN'
p693
sg5
S'54:75:D0:A4:D8:81'
p694
sg7
g682
sa(dp695
g2
I-75
sg3
S'ECS-WLAN'
p696
sg5
S'C8:4C:75:60:9B:E1'
p697
sg7
g682
sa(dp698
g2
I-75
sg3
S'eduroam'
p699
sg5
S'C8:4C:75:60:9B:E0'
p700
sg7
g682
sa(dp701
g2
I-59
sg3
S'eduroam'
p702
sg5
S'54:75:D0:A4:C1:40'
p703
sg7
(I620
I517
tp704
sa(dp705
g2
I-59
sg3
S'ECS-WLAN'
p706
sg5
S'54:75:D0:A4:C1:41'
p707
sg7
g704
sa(dp708
g2
I-61
sg3
S'eduroam'
p709
sg5
S'C8:4C:75:D1:FB:D0'
p710
sg7
g704
sa(dp711
g2
I-63
sg3
S'ECS-WLAN'
p712
sg5
S'C8:4C:75:D1:FB:D1'
p713
sg7
g704
sa(dp714
g2
I-75
sg3
S'ECS-WLAN'
p715
sg5
S'54:75:D0:A4:D8:81'
p716
sg7
g704
sa(dp717
g2
I-75
sg3
S'ECS-WLAN'
p718
sg5
S'C8:4C:75:60:9B:E1'
p719
sg7
g704
sa(dp720
g2
I-75
sg3
S'eduroam'
p721
sg5
S'C8:4C:75:60:9B:E0'
p722
sg7
g704
sa(dp723
g2
I-59
sg3
S'eduroam'
p724
sg5
S'54:75:D0:A4:C1:40'
p725
sg7
(I576
I516
tp726
sa(dp727
g2
I-59
sg3
S'ECS-WLAN'
p728
sg5
S'54:75:D0:A4:C1:41'
p729
sg7
g726
sa(dp730
g2
I-61
sg3
S'eduroam'
p731
sg5
S'C8:4C:75:D1:FB:D0'
p732
sg7
g726
sa(dp733
g2
I-63
sg3
S'ECS-WLAN'
p734
sg5
S'C8:4C:75:D1:FB:D1'
p735
sg7
g726
sa(dp736
g2
I-75
sg3
S'ECS-WLAN'
p737
sg5
S'54:75:D0:A4:D8:81'
p738
sg7
g726
sa(dp739
g2
I-75
sg3
S'ECS-WLAN'
p740
sg5
S'C8:4C:75:60:9B:E1'
p741
sg7
g726
sa(dp742
g2
I-75
sg3
S'eduroam'
p743
sg5
S'C8:4C:75:60:9B:E0'
p744
sg7
g726
sa(dp745
g2
I-59
sg3
S'eduroam'
p746
sg5
S'54:75:D0:A4:C1:40'
p747
sg7
(I537
I516
tp748
sa(dp749
g2
I-59
sg3
S'ECS-WLAN'
p750
sg5
S'54:75:D0:A4:C1:41'
p751
sg7
g748
sa(dp752
g2
I-61
sg3
S'eduroam'
p753
sg5
S'C8:4C:75:D1:FB:D0'
p754
sg7
g748
sa(dp755
g2
I-63
sg3
S'ECS-WLAN'
p756
sg5
S'C8:4C:75:D1:FB:D1'
p757
sg7
g748
sa(dp758
g2
I-75
sg3
S'ECS-WLAN'
p759
sg5
S'54:75:D0:A4:D8:81'
p760
sg7
g748
sa(dp761
g2
I-75
sg3
S'ECS-WLAN'
p762
sg5
S'C8:4C:75:60:9B:E1'
p763
sg7
g748
sa(dp764
g2
I-75
sg3
S'eduroam'
p765
sg5
S'C8:4C:75:60:9B:E0'
p766
sg7
g748
sa(dp767
g2
I-59
sg3
S'eduroam'
p768
sg5
S'54:75:D0:A4:C1:40'
p769
sg7
(I505
I514
tp770
sa(dp771
g2
I-59
sg3
S'ECS-WLAN'
p772
sg5
S'54:75:D0:A4:C1:41'
p773
sg7
g770
sa(dp774
g2
I-61
sg3
S'eduroam'
p775
sg5
S'C8:4C:75:D1:FB:D0'
p776
sg7
g770
sa(dp777
g2
I-63
sg3
S'ECS-WLAN'
p778
sg5
S'C8:4C:75:D1:FB:D1'
p779
sg7
g770
sa(dp780
g2
I-75
sg3
S'ECS-WLAN'
p781
sg5
S'54:75:D0:A4:D8:81'
p782
sg7
g770
sa(dp783
g2
I-75
sg3
S'ECS-WLAN'
p784
sg5
S'C8:4C:75:60:9B:E1'
p785
sg7
g770
sa(dp786
g2
I-75
sg3
S'eduroam'
p787
sg5
S'C8:4C:75:60:9B:E0'
p788
sg7
g770
sa(dp789
g2
I-59
sg3
S'eduroam'
p790
sg5
S'54:75:D0:A4:C1:40'
p791
sg7
(I455
I514
tp792
sa(dp793
g2
I-59
sg3
S'ECS-WLAN'
p794
sg5
S'54:75:D0:A4:C1:41'
p795
sg7
g792
sa(dp796
g2
I-61
sg3
S'eduroam'
p797
sg5
S'C8:4C:75:D1:FB:D0'
p798
sg7
g792
sa(dp799
g2
I-63
sg3
S'ECS-WLAN'
p800
sg5
S'C8:4C:75:D1:FB:D1'
p801
sg7
g792
sa(dp802
g2
I-75
sg3
S'ECS-WLAN'
p803
sg5
S'54:75:D0:A4:D8:81'
p804
sg7
g792
sa(dp805
g2
I-75
sg3
S'ECS-WLAN'
p806
sg5
S'C8:4C:75:60:9B:E1'
p807
sg7
g792
sa(dp808
g2
I-75
sg3
S'eduroam'
p809
sg5
S'C8:4C:75:60:9B:E0'
p810
sg7
g792
sa(dp811
g2
I-59
sg3
S'eduroam'
p812
sg5
S'54:75:D0:A4:C1:40'
p813
sg7
(I418
I513
tp814
sa(dp815
g2
I-59
sg3
S'ECS-WLAN'
p816
sg5
S'54:75:D0:A4:C1:41'
p817
sg7
g814
sa(dp818
g2
I-61
sg3
S'eduroam'
p819
sg5
S'C8:4C:75:D1:FB:D0'
p820
sg7
g814
sa(dp821
g2
I-63
sg3
S'ECS-WLAN'
p822
sg5
S'C8:4C:75:D1:FB:D1'
p823
sg7
g814
sa(dp824
g2
I-75
sg3
S'ECS-WLAN'
p825
sg5
S'54:75:D0:A4:D8:81'
p826
sg7
g814
sa(dp827
g2
I-75
sg3
S'ECS-WLAN'
p828
sg5
S'C8:4C:75:60:9B:E1'
p829
sg7
g814
sa(dp830
g2
I-75
sg3
S'eduroam'
p831
sg5
S'C8:4C:75:60:9B:E0'
p832
sg7
g814
sa(dp833
g2
I-73
sg3
S'eduroam'
p834
sg5
S'54:75:D0:A4:D8:80'
p835
sg7
(I363
I515
tp836
sa(dp837
g2
I-73
sg3
S'ECS-WLAN'
p838
sg5
S'54:75:D0:A4:D8:81'
p839
sg7
g836
sa(dp840
g2
I-75
sg3
S'ECS-WLAN'
p841
sg5
S'54:75:D0:A4:CD:D1'
p842
sg7
g836
sa(dp843
g2
I-77
sg3
S'eduroam'
p844
sg5
S'C8:4C:75:D1:FB:D0'
p845
sg7
g836
sa(dp846
g2
I-77
sg3
S'eduroam'
p847
sg5
S'54:75:D0:A4:CD:D0'
p848
sg7
g836
sa(dp849
g2
I-79
sg3
S'ECS-WLAN'
p850
sg5
S'C8:4C:75:D1:FB:D1'
p851
sg7
g836
sa(dp852
g2
I-83
sg3
S'eduroam'
p853
sg5
S'54:75:D0:A4:C1:40'
p854
sg7
g836
sa(dp855
g2
I-83
sg3
S'ECS-WLAN'
p856
sg5
S'54:75:D0:A4:C1:41'
p857
sg7
g836
sa(dp858
g2
I-85
sg3
S'eduroam'
p859
sg5
S'C8:4C:75:60:9B:E0'
p860
sg7
g836
sa(dp861
g2
I-87
sg3
S'ECS-WLAN'
p862
sg5
S'C8:4C:75:60:9B:E1'
p863
sg7
g836
sa(dp864
g2
I-73
sg3
S'eduroam'
p865
sg5
S'54:75:D0:A4:D8:80'
p866
sg7
(I323
I515
tp867
sa(dp868
g2
I-73
sg3
S'ECS-WLAN'
p869
sg5
S'54:75:D0:A4:D8:81'
p870
sg7
g867
sa(dp871
g2
I-75
sg3
S'ECS-WLAN'
p872
sg5
S'54:75:D0:A4:CD:D1'
p873
sg7
g867
sa(dp874
g2
I-77
sg3
S'eduroam'
p875
sg5
S'C8:4C:75:D1:FB:D0'
p876
sg7
g867
sa(dp877
g2
I-77
sg3
S'eduroam'
p878
sg5
S'54:75:D0:A4:CD:D0'
p879
sg7
g867
sa(dp880
g2
I-79
sg3
S'ECS-WLAN'
p881
sg5
S'C8:4C:75:D1:FB:D1'
p882
sg7
g867
sa(dp883
g2
I-83
sg3
S'eduroam'
p884
sg5
S'54:75:D0:A4:C1:40'
p885
sg7
g867
sa(dp886
g2
I-83
sg3
S'ECS-WLAN'
p887
sg5
S'54:75:D0:A4:C1:41'
p888
sg7
g867
sa(dp889
g2
I-85
sg3
S'eduroam'
p890
sg5
S'C8:4C:75:60:9B:E0'
p891
sg7
g867
sa(dp892
g2
I-87
sg3
S'ECS-WLAN'
p893
sg5
S'C8:4C:75:60:9B:E1'
p894
sg7
g867
sa(dp895
g2
I-73
sg3
S'eduroam'
p896
sg5
S'54:75:D0:A4:D8:80'
p897
sg7
(I288
I506
tp898
sa(dp899
g2
I-73
sg3
S'ECS-WLAN'
p900
sg5
S'54:75:D0:A4:D8:81'
p901
sg7
g898
sa(dp902
g2
I-75
sg3
S'ECS-WLAN'
p903
sg5
S'54:75:D0:A4:CD:D1'
p904
sg7
g898
sa(dp905
g2
I-77
sg3
S'eduroam'
p906
sg5
S'C8:4C:75:D1:FB:D0'
p907
sg7
g898
sa(dp908
g2
I-77
sg3
S'eduroam'
p909
sg5
S'54:75:D0:A4:CD:D0'
p910
sg7
g898
sa(dp911
g2
I-79
sg3
S'ECS-WLAN'
p912
sg5
S'C8:4C:75:D1:FB:D1'
p913
sg7
g898
sa(dp914
g2
I-83
sg3
S'eduroam'
p915
sg5
S'54:75:D0:A4:C1:40'
p916
sg7
g898
sa(dp917
g2
I-83
sg3
S'ECS-WLAN'
p918
sg5
S'54:75:D0:A4:C1:41'
p919
sg7
g898
sa(dp920
g2
I-85
sg3
S'eduroam'
p921
sg5
S'C8:4C:75:60:9B:E0'
p922
sg7
g898
sa(dp923
g2
I-87
sg3
S'ECS-WLAN'
p924
sg5
S'C8:4C:75:60:9B:E1'
p925
sg7
g898
sa(dp926
g2
I-73
sg3
S'eduroam'
p927
sg5
S'54:75:D0:A4:D8:80'
p928
sg7
(I286
I448
tp929
sa(dp930
g2
I-73
sg3
S'ECS-WLAN'
p931
sg5
S'54:75:D0:A4:D8:81'
p932
sg7
g929
sa(dp933
g2
I-75
sg3
S'ECS-WLAN'
p934
sg5
S'54:75:D0:A4:CD:D1'
p935
sg7
g929
sa(dp936
g2
I-77
sg3
S'eduroam'
p937
sg5
S'C8:4C:75:D1:FB:D0'
p938
sg7
g929
sa(dp939
g2
I-77
sg3
S'eduroam'
p940
sg5
S'54:75:D0:A4:CD:D0'
p941
sg7
g929
sa(dp942
g2
I-79
sg3
S'ECS-WLAN'
p943
sg5
S'C8:4C:75:D1:FB:D1'
p944
sg7
g929
sa(dp945
g2
I-83
sg3
S'eduroam'
p946
sg5
S'54:75:D0:A4:C1:40'
p947
sg7
g929
sa(dp948
g2
I-83
sg3
S'ECS-WLAN'
p949
sg5
S'54:75:D0:A4:C1:41'
p950
sg7
g929
sa(dp951
g2
I-85
sg3
S'eduroam'
p952
sg5
S'C8:4C:75:60:9B:E0'
p953
sg7
g929
sa(dp954
g2
I-87
sg3
S'ECS-WLAN'
p955
sg5
S'C8:4C:75:60:9B:E1'
p956
sg7
g929
sa(dp957
g2
I-73
sg3
S'eduroam'
p958
sg5
S'54:75:D0:A4:D8:80'
p959
sg7
(I279
I416
tp960
sa(dp961
g2
I-73
sg3
S'ECS-WLAN'
p962
sg5
S'54:75:D0:A4:D8:81'
p963
sg7
g960
sa(dp964
g2
I-75
sg3
S'ECS-WLAN'
p965
sg5
S'54:75:D0:A4:CD:D1'
p966
sg7
g960
sa(dp967
g2
I-77
sg3
S'eduroam'
p968
sg5
S'C8:4C:75:D1:FB:D0'
p969
sg7
g960
sa(dp970
g2
I-77
sg3
S'eduroam'
p971
sg5
S'54:75:D0:A4:CD:D0'
p972
sg7
g960
sa(dp973
g2
I-79
sg3
S'ECS-WLAN'
p974
sg5
S'C8:4C:75:D1:FB:D1'
p975
sg7
g960
sa(dp976
g2
I-83
sg3
S'eduroam'
p977
sg5
S'54:75:D0:A4:C1:40'
p978
sg7
g960
sa(dp979
g2
I-83
sg3
S'ECS-WLAN'
p980
sg5
S'54:75:D0:A4:C1:41'
p981
sg7
g960
sa(dp982
g2
I-85
sg3
S'eduroam'
p983
sg5
S'C8:4C:75:60:9B:E0'
p984
sg7
g960
sa(dp985
g2
I-87
sg3
S'ECS-WLAN'
p986
sg5
S'C8:4C:75:60:9B:E1'
p987
sg7
g960
sa(dp988
g2
I-73
sg3
S'eduroam'
p989
sg5
S'54:75:D0:A4:D8:80'
p990
sg7
(I266
I473
tp991
sa(dp992
g2
I-73
sg3
S'ECS-WLAN'
p993
sg5
S'54:75:D0:A4:D8:81'
p994
sg7
g991
sa(dp995
g2
I-75
sg3
S'ECS-WLAN'
p996
sg5
S'54:75:D0:A4:CD:D1'
p997
sg7
g991
sa(dp998
g2
I-77
sg3
S'eduroam'
p999
sg5
S'C8:4C:75:D1:FB:D0'
p1000
sg7
g991
sa(dp1001
g2
I-77
sg3
S'eduroam'
p1002
sg5
S'54:75:D0:A4:CD:D0'
p1003
sg7
g991
sa(dp1004
g2
I-79
sg3
S'ECS-WLAN'
p1005
sg5
S'C8:4C:75:D1:FB:D1'
p1006
sg7
g991
sa(dp1007
g2
I-83
sg3
S'eduroam'
p1008
sg5
S'54:75:D0:A4:C1:40'
p1009
sg7
g991
sa(dp1010
g2
I-83
sg3
S'ECS-WLAN'
p1011
sg5
S'54:75:D0:A4:C1:41'
p1012
sg7
g991
sa(dp1013
g2
I-85
sg3
S'eduroam'
p1014
sg5
S'C8:4C:75:60:9B:E0'
p1015
sg7
g991
sa(dp1016
g2
I-87
sg3
S'ECS-WLAN'
p1017
sg5
S'C8:4C:75:60:9B:E1'
p1018
sg7
g991
sa(dp1019
g2
I-73
sg3
S'eduroam'
p1020
sg5
S'54:75:D0:A4:D8:80'
p1021
sg7
(I262
I516
tp1022
sa(dp1023
g2
I-73
sg3
S'ECS-WLAN'
p1024
sg5
S'54:75:D0:A4:D8:81'
p1025
sg7
g1022
sa(dp1026
g2
I-75
sg3
S'ECS-WLAN'
p1027
sg5
S'54:75:D0:A4:CD:D1'
p1028
sg7
g1022
sa(dp1029
g2
I-77
sg3
S'eduroam'
p1030
sg5
S'C8:4C:75:D1:FB:D0'
p1031
sg7
g1022
sa(dp1032
g2
I-77
sg3
S'eduroam'
p1033
sg5
S'54:75:D0:A4:CD:D0'
p1034
sg7
g1022
sa(dp1035
g2
I-79
sg3
S'ECS-WLAN'
p1036
sg5
S'C8:4C:75:D1:FB:D1'
p1037
sg7
g1022
sa(dp1038
g2
I-83
sg3
S'eduroam'
p1039
sg5
S'54:75:D0:A4:C1:40'
p1040
sg7
g1022
sa(dp1041
g2
I-83
sg3
S'ECS-WLAN'
p1042
sg5
S'54:75:D0:A4:C1:41'
p1043
sg7
g1022
sa(dp1044
g2
I-85
sg3
S'eduroam'
p1045
sg5
S'C8:4C:75:60:9B:E0'
p1046
sg7
g1022
sa(dp1047
g2
I-87
sg3
S'ECS-WLAN'
p1048
sg5
S'C8:4C:75:60:9B:E1'
p1049
sg7
g1022
sa(dp1050
g2
I-73
sg3
S'eduroam'
p1051
sg5
S'54:75:D0:A4:D8:80'
p1052
sg7
(I224
I516
tp1053
sa(dp1054
g2
I-73
sg3
S'ECS-WLAN'
p1055
sg5
S'54:75:D0:A4:D8:81'
p1056
sg7
g1053
sa(dp1057
g2
I-75
sg3
S'ECS-WLAN'
p1058
sg5
S'54:75:D0:A4:CD:D1'
p1059
sg7
g1053
sa(dp1060
g2
I-77
sg3
S'eduroam'
p1061
sg5
S'C8:4C:75:D1:FB:D0'
p1062
sg7
g1053
sa(dp1063
g2
I-77
sg3
S'eduroam'
p1064
sg5
S'54:75:D0:A4:CD:D0'
p1065
sg7
g1053
sa(dp1066
g2
I-79
sg3
S'ECS-WLAN'
p1067
sg5
S'C8:4C:75:D1:FB:D1'
p1068
sg7
g1053
sa(dp1069
g2
I-83
sg3
S'eduroam'
p1070
sg5
S'54:75:D0:A4:C1:40'
p1071
sg7
g1053
sa(dp1072
g2
I-83
sg3
S'ECS-WLAN'
p1073
sg5
S'54:75:D0:A4:C1:41'
p1074
sg7
g1053
sa(dp1075
g2
I-85
sg3
S'eduroam'
p1076
sg5
S'C8:4C:75:60:9B:E0'
p1077
sg7
g1053
sa(dp1078
g2
I-87
sg3
S'ECS-WLAN'
p1079
sg5
S'C8:4C:75:60:9B:E1'
p1080
sg7
g1053
sa(dp1081
g2
I-73
sg3
S'eduroam'
p1082
sg5
S'54:75:D0:A4:D8:80'
p1083
sg7
(I190
I513
tp1084
sa(dp1085
g2
I-73
sg3
S'ECS-WLAN'
p1086
sg5
S'54:75:D0:A4:D8:81'
p1087
sg7
g1084
sa(dp1088
g2
I-75
sg3
S'ECS-WLAN'
p1089
sg5
S'54:75:D0:A4:CD:D1'
p1090
sg7
g1084
sa(dp1091
g2
I-77
sg3
S'eduroam'
p1092
sg5
S'C8:4C:75:D1:FB:D0'
p1093
sg7
g1084
sa(dp1094
g2
I-77
sg3
S'eduroam'
p1095
sg5
S'54:75:D0:A4:CD:D0'
p1096
sg7
g1084
sa(dp1097
g2
I-79
sg3
S'ECS-WLAN'
p1098
sg5
S'C8:4C:75:D1:FB:D1'
p1099
sg7
g1084
sa(dp1100
g2
I-83
sg3
S'eduroam'
p1101
sg5
S'54:75:D0:A4:C1:40'
p1102
sg7
g1084
sa(dp1103
g2
I-83
sg3
S'ECS-WLAN'
p1104
sg5
S'54:75:D0:A4:C1:41'
p1105
sg7
g1084
sa(dp1106
g2
I-85
sg3
S'eduroam'
p1107
sg5
S'C8:4C:75:60:9B:E0'
p1108
sg7
g1084
sa(dp1109
g2
I-87
sg3
S'ECS-WLAN'
p1110
sg5
S'C8:4C:75:60:9B:E1'
p1111
sg7
g1084
sa(dp1112
g2
I-73
sg3
S'eduroam'
p1113
sg5
S'54:75:D0:A4:D8:80'
p1114
sg7
(I275
I370
tp1115
sa(dp1116
g2
I-75
sg3
S'ECS-WLAN'
p1117
sg5
S'54:75:D0:A4:D8:81'
p1118
sg7
g1115
sa(dp1119
g2
I-85
sg3
S'eduroam'
p1120
sg5
S'54:75:D0:A4:CD:D0'
p1121
sg7
g1115
sa(dp1122
g2
I-89
sg3
S'ECS-WLAN'
p1123
sg5
S'54:75:D0:A4:CD:D1'
p1124
sg7
g1115
sa(dp1125
g2
I-73
sg3
S'eduroam'
p1126
sg5
S'54:75:D0:A4:D8:80'
p1127
sg7
(I280
I353
tp1128
sa(dp1129
g2
I-75
sg3
S'ECS-WLAN'
p1130
sg5
S'54:75:D0:A4:D8:81'
p1131
sg7
g1128
sa(dp1132
g2
I-85
sg3
S'eduroam'
p1133
sg5
S'54:75:D0:A4:CD:D0'
p1134
sg7
g1128
sa(dp1135
g2
I-89
sg3
S'ECS-WLAN'
p1136
sg5
S'54:75:D0:A4:CD:D1'
p1137
sg7
g1128
sa(dp1138
g2
I-73
sg3
S'eduroam'
p1139
sg5
S'54:75:D0:A4:D8:80'
p1140
sg7
(I145
I443
tp1141
sa(dp1142
g2
I-75
sg3
S'ECS-WLAN'
p1143
sg5
S'54:75:D0:A4:D8:81'
p1144
sg7
g1141
sa(dp1145
g2
I-87
sg3
S'eduroam'
p1146
sg5
S'54:75:D0:A4:CD:D0'
p1147
sg7
g1141
sa(dp1148
g2
I-89
sg3
S'ECS-WLAN'
p1149
sg5
S'54:75:D0:A4:CD:D1'
p1150
sg7
g1141
sa(dp1151
g2
I-73
sg3
S'eduroam'
p1152
sg5
S'54:75:D0:A4:D8:80'
p1153
sg7
(I58
I454
tp1154
sa(dp1155
g2
I-75
sg3
S'ECS-WLAN'
p1156
sg5
S'54:75:D0:A4:D8:81'
p1157
sg7
g1154
sa(dp1158
g2
I-87
sg3
S'eduroam'
p1159
sg5
S'54:75:D0:A4:CD:D0'
p1160
sg7
g1154
sa(dp1161
g2
I-89
sg3
S'ECS-WLAN'
p1162
sg5
S'54:75:D0:A4:CD:D1'
p1163
sg7
g1154
sa(dp1164
g2
I-73
sg3
S'eduroam'
p1165
sg5
S'54:75:D0:A4:D8:80'
p1166
sg7
(I55
I413
tp1167
sa(dp1168
g2
I-75
sg3
S'ECS-WLAN'
p1169
sg5
S'54:75:D0:A4:D8:81'
p1170
sg7
g1167
sa(dp1171
g2
I-87
sg3
S'eduroam'
p1172
sg5
S'54:75:D0:A4:CD:D0'
p1173
sg7
g1167
sa(dp1174
g2
I-89
sg3
S'ECS-WLAN'
p1175
sg5
S'54:75:D0:A4:CD:D1'
p1176
sg7
g1167
sa(dp1177
g2
I-73
sg3
S'eduroam'
p1178
sg5
S'54:75:D0:A4:D8:80'
p1179
sg7
(I150
I410
tp1180
sa(dp1181
g2
I-75
sg3
S'ECS-WLAN'
p1182
sg5
S'54:75:D0:A4:D8:81'
p1183
sg7
g1180
sa(dp1184
g2
I-87
sg3
S'eduroam'
p1185
sg5
S'54:75:D0:A4:CD:D0'
p1186
sg7
g1180
sa(dp1187
g2
I-89
sg3
S'ECS-WLAN'
p1188
sg5
S'54:75:D0:A4:CD:D1'
p1189
sg7
g1180
sa(dp1190
g2
I-73
sg3
S'eduroam'
p1191
sg5
S'54:75:D0:A4:D8:80'
p1192
sg7
(I205
I431
tp1193
sa(dp1194
g2
I-75
sg3
S'ECS-WLAN'
p1195
sg5
S'54:75:D0:A4:D8:81'
p1196
sg7
g1193
sa(dp1197
g2
I-87
sg3
S'eduroam'
p1198
sg5
S'54:75:D0:A4:CD:D0'
p1199
sg7
g1193
sa(dp1200
g2
I-89
sg3
S'ECS-WLAN'
p1201
sg5
S'54:75:D0:A4:CD:D1'
p1202
sg7
g1193
sa(dp1203
g2
I-41
sg3
S'eduroam'
p1204
sg5
S'C8:4C:75:D1:FB:D0'
p1205
sg7
(I719
I223
tp1206
sa(dp1207
g2
I-41
sg3
S'ECS-WLAN'
p1208
sg5
S'C8:4C:75:D1:FB:D1'
p1209
sg7
g1206
sa(dp1210
g2
I-83
sg3
S'eduroam'
p1211
sg5
S'54:75:D0:A4:C1:40'
p1212
sg7
g1206
sa(dp1213
g2
I-83
sg3
S'ECS-WLAN'
p1214
sg5
S'54:75:D0:A4:C1:41'
p1215
sg7
g1206
sa(dp1216
g2
I-57
sg3
S'eduroam'
p1217
sg5
S'C8:4C:75:D1:FB:D0'
p1218
sg7
(I714
I167
tp1219
sa(dp1220
g2
I-57
sg3
S'ECS-WLAN'
p1221
sg5
S'C8:4C:75:D1:FB:D1'
p1222
sg7
g1219
sa(dp1223
g2
I-57
sg3
S'eduroam'
p1224
sg5
S'C8:4C:75:D1:FB:D0'
p1225
sg7
(I714
I95
tp1226
sa(dp1227
g2
I-57
sg3
S'ECS-WLAN'
p1228
sg5
S'C8:4C:75:D1:FB:D1'
p1229
sg7
g1226
sa(dp1230
g2
I-57
sg3
S'eduroam'
p1231
sg5
S'C8:4C:75:D1:FB:D0'
p1232
sg7
(I711
I39
tp1233
sa(dp1234
g2
I-57
sg3
S'ECS-WLAN'
p1235
sg5
S'C8:4C:75:D1:FB:D1'
p1236
sg7
g1233
sa(dp1237
g2
I-57
sg3
S'eduroam'
p1238
sg5
S'C8:4C:75:D1:FB:D0'
p1239
sg7
(I784
I33
tp1240
sa(dp1241
g2
I-57
sg3
S'ECS-WLAN'
p1242
sg5
S'C8:4C:75:D1:FB:D1'
p1243
sg7
g1240
sa(dp1244
g2
I-57
sg3
S'eduroam'
p1245
sg5
S'C8:4C:75:D1:FB:D0'
p1246
sg7
(I830
I35
tp1247
sa(dp1248
g2
I-57
sg3
S'ECS-WLAN'
p1249
sg5
S'C8:4C:75:D1:FB:D1'
p1250
sg7
g1247
sa(dp1251
g2
I-57
sg3
S'eduroam'
p1252
sg5
S'C8:4C:75:D1:FB:D0'
p1253
sg7
(I838
I87
tp1254
sa(dp1255
g2
I-57
sg3
S'ECS-WLAN'
p1256
sg5
S'C8:4C:75:D1:FB:D1'
p1257
sg7
g1254
sa(dp1258
g2
I-57
sg3
S'eduroam'
p1259
sg5
S'C8:4C:75:D1:FB:D0'
p1260
sg7
(I776
I88
tp1261
sa(dp1262
g2
I-57
sg3
S'ECS-WLAN'
p1263
sg5
S'C8:4C:75:D1:FB:D1'
p1264
sg7
g1261
sa(dp1265
g2
I-49
sg3
S'eduroam'
p1266
sg5
S'C8:4C:75:D1:FB:D0'
p1267
sg7
(I759
I168
tp1268
sa(dp1269
g2
I-51
sg3
S'ECS-WLAN'
p1270
sg5
S'C8:4C:75:D1:FB:D1'
p1271
sg7
g1268
sa(dp1272
g2
I-89
sg3
S'eduroam'
p1273
sg5
S'54:75:D0:A4:C1:40'
p1274
sg7
g1268
sa(dp1275
g2
I-49
sg3
S'eduroam'
p1276
sg5
S'C8:4C:75:D1:FB:D0'
p1277
sg7
(I793
I194
tp1278
sa(dp1279
g2
I-51
sg3
S'ECS-WLAN'
p1280
sg5
S'C8:4C:75:D1:FB:D1'
p1281
sg7
g1278
sa(dp1282
g2
I-89
sg3
S'eduroam'
p1283
sg5
S'54:75:D0:A4:C1:40'
p1284
sg7
g1278
sa(dp1285
g2
I-49
sg3
S'eduroam'
p1286
sg5
S'C8:4C:75:D1:FB:D0'
p1287
sg7
(I827
I146
tp1288
sa(dp1289
g2
I-51
sg3
S'ECS-WLAN'
p1290
sg5
S'C8:4C:75:D1:FB:D1'
p1291
sg7
g1288
sa(dp1292
g2
I-89
sg3
S'eduroam'
p1293
sg5
S'54:75:D0:A4:C1:40'
p1294
sg7
g1288
sa(dp1295
g2
I-49
sg3
S'eduroam'
p1296
sg5
S'C8:4C:75:D1:FB:D0'
p1297
sg7
(I769
I237
tp1298
sa(dp1299
g2
I-51
sg3
S'ECS-WLAN'
p1300
sg5
S'C8:4C:75:D1:FB:D1'
p1301
sg7
g1298
sa(dp1302
g2
I-89
sg3
S'eduroam'
p1303
sg5
S'54:75:D0:A4:C1:40'
p1304
sg7
g1298
sa(dp1305
g2
I-49
sg3
S'eduroam'
p1306
sg5
S'C8:4C:75:D1:FB:D0'
p1307
sg7
(I823
I255
tp1308
sa(dp1309
g2
I-51
sg3
S'ECS-WLAN'
p1310
sg5
S'C8:4C:75:D1:FB:D1'
p1311
sg7
g1308
sa(dp1312
g2
I-89
sg3
S'eduroam'
p1313
sg5
S'54:75:D0:A4:C1:40'
p1314
sg7
g1308
sa(dp1315
g2
I-49
sg3
S'eduroam'
p1316
sg5
S'C8:4C:75:D1:FB:D0'
p1317
sg7
(I773
I270
tp1318
sa(dp1319
g2
I-51
sg3
S'ECS-WLAN'
p1320
sg5
S'C8:4C:75:D1:FB:D1'
p1321
sg7
g1318
sa(dp1322
g2
I-89
sg3
S'eduroam'
p1323
sg5
S'54:75:D0:A4:C1:40'
p1324
sg7
g1318
sa.