(lp0
(dp1
S'power'
p2
I-79
sS'ESSID'
p3
S'eduroam'
p4
sS'BSSID'
p5
S'C8:4C:75:D1:FB:D0'
p6
sS'point'
p7
(I1176
I31
tp8
sa(dp9
g2
I-81
sg3
S'ECS-WLAN'
p10
sg5
S'C8:4C:75:D1:FB:D1'
p11
sg7
g8
sa(dp12
g2
I-83
sg3
S'ECS-WLAN'
p13
sg5
S'F4:EA:67:0E:55:71'
p14
sg7
g8
sa(dp15
g2
I-87
sg3
S'eduroam'
p16
sg5
S'F4:EA:67:0E:55:70'
p17
sg7
g8
sa(dp18
g2
I-79
sg3
S'eduroam'
p19
sg5
S'C8:4C:75:D1:FB:D0'
p20
sg7
(I1135
I95
tp21
sa(dp22
g2
I-79
sg3
S'ECS-WLAN'
p23
sg5
S'C8:4C:75:D1:FB:D1'
p24
sg7
g21
sa(dp25
g2
I-79
sg3
S'eduroam'
p26
sg5
S'C8:4C:75:D1:FB:D0'
p27
sg7
(I1141
I189
tp28
sa(dp29
g2
I-81
sg3
S'ECS-WLAN'
p30
sg5
S'C8:4C:75:D1:FB:D1'
p31
sg7
g28
sa(dp32
g2
I-87
sg3
S'eduroam'
p33
sg5
S'C8:4C:75:D1:FB:D0'
p34
sg7
(I1151
I288
tp35
sa(dp36
g2
I-89
sg3
S'ECS-WLAN'
p37
sg5
S'C8:4C:75:D1:FB:D1'
p38
sg7
g35
sa(dp39
g2
I-83
sg3
S'ECS-WLAN'
p40
sg5
S'C8:4C:75:D1:FB:D1'
p41
sg7
(I1227
I219
tp42
sa(dp43
g2
I-83
sg3
S'eduroam'
p44
sg5
S'C8:4C:75:D1:FB:D0'
p45
sg7
g42
sa(dp46
g2
I-85
sg3
S'eduroam'
p47
sg5
S'C8:4C:75:D1:FB:D0'
p48
sg7
(I1328
I148
tp49
sa(dp50
g2
I-87
sg3
S'ECS-WLAN'
p51
sg5
S'C8:4C:75:D1:FB:D1'
p52
sg7
g49
sa(dp53
g2
I-77
sg3
S'eduroam'
p54
sg5
S'C8:4C:75:D1:FB:D0'
p55
sg7
(I1237
I139
tp56
sa(dp57
g2
I-77
sg3
S'ECS-WLAN'
p58
sg5
S'C8:4C:75:D1:FB:D1'
p59
sg7
g56
sa(dp60
g2
I-85
sg3
S'ECS-WLAN'
p61
sg5
S'C8:4C:75:D1:FB:D1'
p62
sg7
(I1333
I276
tp63
sa(dp64
g2
I-85
sg3
S'ECS-WLAN'
p65
sg5
S'C8:4C:75:D1:FB:D1'
p66
sg7
(I1276
I297
tp67
sa(dp68
S'power'
p69
I-85
sS'ESSID'
p70
S'eduroam'
p71
sS'BSSID'
p72
S'C8:4C:75:60:9B:E0'
p73
sS'point'
p74
(I1288
I447
tp75
sa(dp76
g69
I-87
sg70
S'ECS-WLAN'
p77
sg72
S'C8:4C:75:60:9B:E1'
p78
sg74
g75
sa(dp79
g69
I-85
sg70
S'eduroam'
p80
sg72
S'C8:4C:75:60:9B:E0'
p81
sg74
(I1284
I382
tp82
sa(dp83
g69
I-87
sg70
S'ECS-WLAN'
p84
sg72
S'C8:4C:75:60:9B:E1'
p85
sg74
g82
sa(dp86
g69
I-81
sg70
S'ECS-WLAN'
p87
sg72
S'54:75:D0:A4:C1:41'
p88
sg74
(I1159
I580
tp89
sa(dp90
g69
I-81
sg70
S'eduroam'
p91
sg72
S'54:75:D0:A4:C1:40'
p92
sg74
(I1203
I629
tp93
sa(dp94
g69
I-83
sg70
S'ECS-WLAN'
p95
sg72
S'54:75:D0:A4:C1:41'
p96
sg74
g93
sa(dp97
g69
I-81
sg70
S'eduroam'
p98
sg72
S'54:75:D0:A4:C1:40'
p99
sg74
(I1161
I685
tp100
sa(dp101
g69
I-83
sg70
S'ECS-WLAN'
p102
sg72
S'54:75:D0:A4:C1:41'
p103
sg74
g100
sa(dp104
g69
I-81
sg70
S'eduroam'
p105
sg72
S'54:75:D0:A4:C1:40'
p106
sg74
(I1270
I510
tp107
sa(dp108
g69
I-83
sg70
S'ECS-WLAN'
p109
sg72
S'54:75:D0:A4:C1:41'
p110
sg74
g107
sa(dp111
g69
I-83
sg70
S'ECS-WLAN'
p112
sg72
S'54:75:D0:A4:C1:41'
p113
sg74
(I1200
I513
tp114
sa(dp115
g69
I-83
sg70
S'eduroam'
p116
sg72
S'54:75:D0:A4:C1:40'
p117
sg74
g114
sa(dp118
g69
I-83
sg70
S'eduroam'
p119
sg72
S'C8:4C:75:60:9B:E0'
p120
sg74
g114
sa(dp121
g69
I-83
sg70
S'ECS-WLAN'
p122
sg72
S'C8:4C:75:60:9B:E1'
p123
sg74
g114
sa(dp124
g69
I-89
sg70
S'ECS-WLAN'
p125
sg72
S'C8:4C:75:D1:FB:D1'
p126
sg74
g114
sa(dp127
g69
I-59
sg70
S'ECS-WLAN'
p128
sg72
S'C8:4C:75:60:9B:E1'
p129
sg74
(I1107
I513
tp130
sa(dp131
g69
I-61
sg70
S'eduroam'
p132
sg72
S'C8:4C:75:60:9B:E0'
p133
sg74
g130
sa(dp134
g69
I-73
sg70
S'eduroam'
p135
sg72
S'54:75:D0:A4:C1:40'
p136
sg74
g130
sa(dp137
g69
I-73
sg70
S'ECS-WLAN'
p138
sg72
S'54:75:D0:A4:C1:41'
p139
sg74
g130
sa(dp140
g69
I-87
sg70
S'ECS-WLAN'
p141
sg72
S'A0:CF:5B:0F:96:21'
p142
sg74
g130
sa(dp143
g69
I-87
sg70
S'ECS-WLAN'
p144
sg72
S'54:75:D0:A4:D8:81'
p145
sg74
g130
sa(dp146
g69
I-89
sg70
S'eduroam'
p147
sg72
S'C8:4C:75:D1:FB:D0'
p148
sg74
g130
sa(dp149
g69
I-89
sg70
S'ECS-WLAN'
p150
sg72
S'C8:4C:75:D1:FB:D1'
p151
sg74
g130
sa(dp152
g69
I-65
sg70
S'eduroam'
p153
sg72
S'C8:4C:75:60:9B:E0'
p154
sg74
(I943
I507
tp155
sa(dp156
g69
I-65
sg70
S'ECS-WLAN'
p157
sg72
S'C8:4C:75:60:9B:E1'
p158
sg74
g155
sa(dp159
g69
I-67
sg70
S'eduroam'
p160
sg72
S'54:75:D0:A4:C1:40'
p161
sg74
g155
sa(dp162
g69
I-67
sg70
S'ECS-WLAN'
p163
sg72
S'54:75:D0:A4:C1:41'
p164
sg74
g155
sa(dp165
g69
I-77
sg70
S'ECS-WLAN'
p166
sg72
S'C8:4C:75:D1:FB:D1'
p167
sg74
g155
sa(dp168
g69
I-79
sg70
S'eduroam'
p169
sg72
S'C8:4C:75:D1:FB:D0'
p170
sg74
g155
sa(dp171
g69
I-87
sg70
S'ECS-WLAN'
p172
sg72
S'54:75:D0:A4:D8:81'
p173
sg74
g155
sa(dp174
g69
I-89
sg70
S'eduroam'
p175
sg72
S'54:75:D0:A4:D8:80'
p176
sg74
g155
sa(dp177
g69
I-55
sg70
S'eduroam'
p178
sg72
S'C8:4C:75:D1:FB:D0'
p179
sg74
(I777
I513
tp180
sa(dp181
g69
I-55
sg70
S'ECS-WLAN'
p182
sg72
S'C8:4C:75:D1:FB:D1'
p183
sg74
g180
sa(dp184
g69
I-59
sg70
S'eduroam'
p185
sg72
S'54:75:D0:A4:C1:40'
p186
sg74
g180
sa(dp187
g69
I-59
sg70
S'ECS-WLAN'
p188
sg72
S'54:75:D0:A4:C1:41'
p189
sg74
g180
sa(dp190
g69
I-71
sg70
S'eduroam'
p191
sg72
S'C8:4C:75:60:9B:E0'
p192
sg74
g180
sa(dp193
g69
I-73
sg70
S'ECS-WLAN'
p194
sg72
S'C8:4C:75:60:9B:E1'
p195
sg74
g180
sa(dp196
g69
I-41
sg70
S'eduroam'
p197
sg72
S'C8:4C:75:D1:FB:D0'
p198
sg74
(I725
I407
tp199
sa(dp200
g69
I-41
sg70
S'ECS-WLAN'
p201
sg72
S'C8:4C:75:D1:FB:D1'
p202
sg74
g199
sa(dp203
g69
I-75
sg70
S'ECS-WLAN'
p204
sg72
S'54:75:D0:A4:C1:41'
p205
sg74
g199
sa(dp206
g69
I-75
sg70
S'eduroam'
p207
sg72
S'54:75:D0:A4:C1:40'
p208
sg74
g199
sa(dp209
g69
I-81
sg70
S'ECS-WLAN'
p210
sg72
S'C8:4C:75:60:9B:E1'
p211
sg74
g199
sa(dp212
g69
I-83
sg70
S'eduroam'
p213
sg72
S'C8:4C:75:60:9B:E0'
p214
sg74
g199
sa(dp215
g69
I-89
sg70
S'ECS-WLAN'
p216
sg72
S'54:75:D0:A4:CD:D1'
p217
sg74
g199
sa(dp218
g69
I-39
sg70
S'eduroam'
p219
sg72
S'C8:4C:75:D1:FB:D0'
p220
sg74
(I725
I356
tp221
sa(dp222
g69
I-41
sg70
S'ECS-WLAN'
p223
sg72
S'C8:4C:75:D1:FB:D1'
p224
sg74
g221
sa(dp225
g69
I-75
sg70
S'ECS-WLAN'
p226
sg72
S'54:75:D0:A4:C1:41'
p227
sg74
g221
sa(dp228
g69
I-75
sg70
S'eduroam'
p229
sg72
S'54:75:D0:A4:C1:40'
p230
sg74
g221
sa(dp231
g69
I-81
sg70
S'ECS-WLAN'
p232
sg72
S'C8:4C:75:60:9B:E1'
p233
sg74
g221
sa(dp234
g69
I-83
sg70
S'eduroam'
p235
sg72
S'C8:4C:75:60:9B:E0'
p236
sg74
g221
sa(dp237
g69
I-89
sg70
S'ECS-WLAN'
p238
sg72
S'54:75:D0:A4:CD:D1'
p239
sg74
g221
sa(dp240
g69
I-49
sg70
S'ECS-WLAN'
p241
sg72
S'C8:4C:75:D1:FB:D1'
p242
sg74
(I710
I517
tp243
sa(dp244
g69
I-51
sg70
S'eduroam'
p245
sg72
S'C8:4C:75:D1:FB:D0'
p246
sg74
g243
sa(dp247
g69
I-61
sg70
S'eduroam'
p248
sg72
S'54:75:D0:A4:C1:40'
p249
sg74
g243
sa(dp250
g69
I-61
sg70
S'ECS-WLAN'
p251
sg72
S'54:75:D0:A4:C1:41'
p252
sg74
g243
sa(dp253
g69
I-73
sg70
S'ECS-WLAN'
p254
sg72
S'54:75:D0:A4:D8:81'
p255
sg74
g243
sa(dp256
g69
I-73
sg70
S'eduroam'
p257
sg72
S'54:75:D0:A4:D8:80'
p258
sg74
g243
sa(dp259
g69
I-77
sg70
S'eduroam'
p260
sg72
S'C8:4C:75:60:9B:E0'
p261
sg74
g243
sa(dp262
g69
I-77
sg70
S'ECS-WLAN'
p263
sg72
S'C8:4C:75:60:9B:E1'
p264
sg74
g243
sa(dp265
g69
I-87
sg70
S'eduroam'
p266
sg72
S'54:75:D0:A4:CD:D0'
p267
sg74
g243
sa(dp268
g69
I-89
sg70
S'ECS-WLAN'
p269
sg72
S'54:75:D0:A4:CD:D1'
p270
sg74
g243
sa(dp271
g69
I-75
sg70
S'eduroam'
p272
sg72
S'C8:4C:75:D1:FB:D0'
p273
sg74
(I558
I518
tp274
sa(dp275
g69
I-75
sg70
S'ECS-WLAN'
p276
sg72
S'C8:4C:75:D1:FB:D1'
p277
sg74
g274
sa(dp278
g69
I-81
sg70
S'eduroam'
p279
sg72
S'54:75:D0:A4:CD:D0'
p280
sg74
g274
sa(dp281
g69
I-85
sg70
S'eduroam'
p282
sg72
S'54:75:D0:A4:D8:80'
p283
sg74
g274
sa(dp284
g69
I-75
sg70
S'eduroam'
p285
sg72
S'C8:4C:75:D1:FB:D0'
p286
sg74
(I464
I452
tp287
sa(dp288
g69
I-75
sg70
S'ECS-WLAN'
p289
sg72
S'C8:4C:75:D1:FB:D1'
p290
sg74
g287
sa(dp291
g69
I-81
sg70
S'eduroam'
p292
sg72
S'54:75:D0:A4:CD:D0'
p293
sg74
g287
sa(dp294
g69
I-85
sg70
S'eduroam'
p295
sg72
S'54:75:D0:A4:D8:80'
p296
sg74
g287
sa(dp297
g69
I-69
sg70
S'eduroam'
p298
sg72
S'54:75:D0:A4:CD:D0'
p299
sg74
(I295
I290
tp300
sa(dp301
g69
I-69
sg70
S'ECS-WLAN'
p302
sg72
S'54:75:D0:A4:CD:D1'
p303
sg74
g300
sa(dp304
g69
I-73
sg70
S'eduroam'
p305
sg72
S'C8:4C:75:D1:FB:D0'
p306
sg74
g300
sa(dp307
g69
I-75
sg70
S'ECS-WLAN'
p308
sg72
S'C8:4C:75:D1:FB:D1'
p309
sg74
g300
sa(dp310
g69
I-65
sg70
S'ECS-WLAN'
p311
sg72
S'54:75:D0:A4:CD:D1'
p312
sg74
(I244
I228
tp313
sa(dp314
g69
I-75
sg70
S'eduroam'
p315
sg72
S'C8:4C:75:D1:FB:D0'
p316
sg74
g313
sa(dp317
g69
I-75
sg70
S'ECS-WLAN'
p318
sg72
S'C8:4C:75:D1:FB:D1'
p319
sg74
g313
sa(dp320
g69
I-65
sg70
S'ECS-WLAN'
p321
sg72
S'54:75:D0:A4:CD:D1'
p322
sg74
(I175
I276
tp323
sa(dp324
g69
I-75
sg70
S'eduroam'
p325
sg72
S'C8:4C:75:D1:FB:D0'
p326
sg74
g323
sa(dp327
g69
I-75
sg70
S'ECS-WLAN'
p328
sg72
S'C8:4C:75:D1:FB:D1'
p329
sg74
g323
sa(dp330
g69
I-67
sg70
S'eduroam'
p331
sg72
S'54:75:D0:A4:CD:D0'
p332
sg74
(I157
I151
tp333
sa(dp334
g69
I-67
sg70
S'ECS-WLAN'
p335
sg72
S'54:75:D0:A4:CD:D1'
p336
sg74
g333
sa(dp337
g69
I-83
sg70
S'eduroam'
p338
sg72
S'C8:4C:75:D1:FB:D0'
p339
sg74
g333
sa(dp340
g69
I-83
sg70
S'ECS-WLAN'
p341
sg72
S'C8:4C:75:D1:FB:D1'
p342
sg74
g333
sa(dp343
g69
I-73
sg70
S'ECS-WLAN'
p344
sg72
S'C8:4C:75:D1:FB:D1'
p345
sg74
(I178
I70
tp346
sa(dp347
g69
I-75
sg70
S'ECS-WLAN'
p348
sg72
S'54:75:D0:A4:CD:D1'
p349
sg74
g346
sa(dp350
g69
I-75
sg70
S'eduroam'
p351
sg72
S'C8:4C:75:D1:FB:D0'
p352
sg74
g346
sa(dp353
g69
I-77
sg70
S'eduroam'
p354
sg72
S'54:75:D0:A4:CD:D0'
p355
sg74
g346
sa(dp356
g69
I-69
sg70
S'eduroam'
p357
sg72
S'C8:4C:75:D1:FB:D0'
p358
sg74
(I326
I84
tp359
sa(dp360
g69
I-69
sg70
S'ECS-WLAN'
p361
sg72
S'C8:4C:75:D1:FB:D1'
p362
sg74
g359
sa(dp363
g69
I-69
sg70
S'eduroam'
p364
sg72
S'54:75:D0:A4:CD:D0'
p365
sg74
(I341
I183
tp366
sa(dp367
g69
I-71
sg70
S'ECS-WLAN'
p368
sg72
S'54:75:D0:A4:CD:D1'
p369
sg74
g366
sa(dp370
g69
I-75
sg70
S'ECS-WLAN'
p371
sg72
S'C8:4C:75:D1:FB:D1'
p372
sg74
g366
sa(dp373
g69
I-91
sg70
S'eduroam'
p374
sg72
S'54:75:D0:A4:C1:40'
p375
sg74
g366
sa(dp376
g69
I-91
sg70
S'ECS-WLAN'
p377
sg72
S'54:75:D0:A4:C1:41'
p378
sg74
g366
sa(dp379
g69
I-69
sg70
S'eduroam'
p380
sg72
S'54:75:D0:A4:CD:D0'
p381
sg74
(I486
I98
tp382
sa(dp383
g69
I-71
sg70
S'ECS-WLAN'
p384
sg72
S'54:75:D0:A4:CD:D1'
p385
sg74
g382
sa(dp386
g69
I-73
sg70
S'ECS-WLAN'
p387
sg72
S'C8:4C:75:D1:FB:D1'
p388
sg74
g382
sa(dp389
g69
I-91
sg70
S'eduroam'
p390
sg72
S'54:75:D0:A4:C1:40'
p391
sg74
g382
sa(dp392
g69
I-91
sg70
S'ECS-WLAN'
p393
sg72
S'54:75:D0:A4:C1:41'
p394
sg74
g382
sa(dp395
g69
I-71
sg70
S'eduroam'
p396
sg72
S'C8:4C:75:D1:FB:D0'
p397
sg74
(I594
I69
tp398
sa(dp399
g69
I-75
sg70
S'ECS-WLAN'
p400
sg72
S'54:75:D0:A4:CD:D1'
p401
sg74
g398
sa(dp402
g69
I-71
sg70
S'eduroam'
p403
sg72
S'C8:4C:75:D1:FB:D0'
p404
sg74
(I501
I170
tp405
sa(dp406
g69
I-75
sg70
S'ECS-WLAN'
p407
sg72
S'54:75:D0:A4:CD:D1'
p408
sg74
g405
sa(dp409
g69
I-71
sg70
S'eduroam'
p410
sg72
S'C8:4C:75:D1:FB:D0'
p411
sg74
(I598
I245
tp412
sa(dp413
g69
I-75
sg70
S'ECS-WLAN'
p414
sg72
S'54:75:D0:A4:CD:D1'
p415
sg74
g412
sa(dp416
g69
I-65
sg70
S'eduroam'
p417
sg72
S'C8:4C:75:D1:FB:D0'
p418
sg74
(I597
I288
tp419
sa(dp420
g69
I-65
sg70
S'ECS-WLAN'
p421
sg72
S'C8:4C:75:D1:FB:D1'
p422
sg74
g419
sa(dp423
g69
I-73
sg70
S'ECS-WLAN'
p424
sg72
S'54:75:D0:A4:CD:D1'
p425
sg74
g419
sa(dp426
g69
I-85
sg70
S'eduroam'
p427
sg72
S'54:75:D0:A4:C1:40'
p428
sg74
g419
sa(dp429
g69
I-85
sg70
S'ECS-WLAN'
p430
sg72
S'54:75:D0:A4:C1:41'
p431
sg74
g419
sa(dp432
g69
I-67
sg70
S'eduroam'
p433
sg72
S'C8:4C:75:D1:FB:D0'
p434
sg74
(I597
I389
tp435
sa(dp436
g69
I-69
sg70
S'ECS-WLAN'
p437
sg72
S'54:75:D0:A4:CD:D1'
p438
sg74
g435
sa(dp439
g69
I-87
sg70
S'eduroam'
p440
sg72
S'54:75:D0:A4:C1:40'
p441
sg74
g435
sa(dp442
g69
I-87
sg70
S'ECS-WLAN'
p443
sg72
S'54:75:D0:A4:C1:41'
p444
sg74
g435
sa(dp445
g69
I-67
sg70
S'eduroam'
p446
sg72
S'C8:4C:75:D1:FB:D0'
p447
sg74
(I598
I343
tp448
sa(dp449
g69
I-69
sg70
S'ECS-WLAN'
p450
sg72
S'54:75:D0:A4:CD:D1'
p451
sg74
g448
sa(dp452
g69
I-87
sg70
S'eduroam'
p453
sg72
S'54:75:D0:A4:C1:40'
p454
sg74
g448
sa(dp455
g69
I-87
sg70
S'ECS-WLAN'
p456
sg72
S'54:75:D0:A4:C1:41'
p457
sg74
g448
sa(dp458
g69
I-59
sg70
S'eduroam'
p459
sg72
S'C8:4C:75:D1:FB:D0'
p460
sg74
(I643
I438
tp461
sa(dp462
g69
I-59
sg70
S'ECS-WLAN'
p463
sg72
S'C8:4C:75:D1:FB:D1'
p464
sg74
g461
sa(dp465
g69
I-75
sg70
S'ECS-WLAN'
p466
sg72
S'54:75:D0:A4:CD:D1'
p467
sg74
g461
sa(dp468
g69
I-75
sg70
S'eduroam'
p469
sg72
S'54:75:D0:A4:CD:D0'
p470
sg74
g461
sa(dp471
g69
I-75
sg70
S'eduroam'
p472
sg72
S'54:75:D0:A4:C1:40'
p473
sg74
g461
sa(dp474
g69
I-75
sg70
S'ECS-WLAN'
p475
sg72
S'54:75:D0:A4:C1:41'
p476
sg74
g461
sa(dp477
g69
I-59
sg70
S'eduroam'
p478
sg72
S'C8:4C:75:D1:FB:D0'
p479
sg74
(I575
I439
tp480
sa(dp481
g69
I-59
sg70
S'ECS-WLAN'
p482
sg72
S'C8:4C:75:D1:FB:D1'
p483
sg74
g480
sa(dp484
g69
I-75
sg70
S'ECS-WLAN'
p485
sg72
S'54:75:D0:A4:CD:D1'
p486
sg74
g480
sa(dp487
g69
I-75
sg70
S'eduroam'
p488
sg72
S'54:75:D0:A4:CD:D0'
p489
sg74
g480
sa(dp490
g69
I-75
sg70
S'eduroam'
p491
sg72
S'54:75:D0:A4:C1:40'
p492
sg74
g480
sa(dp493
g69
I-75
sg70
S'ECS-WLAN'
p494
sg72
S'54:75:D0:A4:C1:41'
p495
sg74
g480
sa(dp496
g69
I-69
sg70
S'ECS-WLAN'
p497
sg72
S'54:75:D0:A4:CD:D1'
p498
sg74
(I280
I358
tp499
sa(dp500
g69
I-85
sg70
S'eduroam'
p501
sg72
S'C8:4C:75:D1:FB:D0'
p502
sg74
g499
sa(dp503
g69
I-85
sg70
S'ECS-WLAN'
p504
sg72
S'C8:4C:75:D1:FB:D1'
p505
sg74
g499
sa(dp506
g69
I-85
sg70
S'eduroam'
p507
sg72
S'54:75:D0:A4:D8:80'
p508
sg74
g499
sa(dp509
g69
I-87
sg70
S'ECS-WLAN'
p510
sg72
S'54:75:D0:A4:D8:81'
p511
sg74
g499
sa(dp512
g69
I-69
sg70
S'ECS-WLAN'
p513
sg72
S'54:75:D0:A4:CD:D1'
p514
sg74
(I378
I383
tp515
sa(dp516
g69
I-71
sg70
S'eduroam'
p517
sg72
S'54:75:D0:A4:CD:D0'
p518
sg74
g515
sa(dp519
g69
I-87
sg70
S'ECS-WLAN'
p520
sg72
S'C8:4C:75:D1:FB:D1'
p521
sg74
g515
sa(dp522
g69
I-89
sg70
S'eduroam'
p523
sg72
S'C8:4C:75:D1:FB:D0'
p524
sg74
g515
sa(dp525
g69
I-89
sg70
S'ECS-WLAN'
p526
sg72
S'54:75:D0:A4:D8:81'
p527
sg74
g515
sa(dp528
g69
I-89
sg70
S'eduroam'
p529
sg72
S'54:75:D0:A4:D8:80'
p530
sg74
g515
sa(dp531
g69
I-71
sg70
S'eduroam'
p532
sg72
S'54:75:D0:A4:CD:D0'
p533
sg74
(I378
I383
tp534
sa(dp535
g69
I-71
sg70
S'ECS-WLAN'
p536
sg72
S'54:75:D0:A4:CD:D1'
p537
sg74
g534
sa(dp538
g69
I-87
sg70
S'ECS-WLAN'
p539
sg72
S'C8:4C:75:D1:FB:D1'
p540
sg74
g534
sa(dp541
g69
I-89
sg70
S'eduroam'
p542
sg72
S'C8:4C:75:D1:FB:D0'
p543
sg74
g534
sa(dp544
g69
I-89
sg70
S'ECS-WLAN'
p545
sg72
S'54:75:D0:A4:D8:81'
p546
sg74
g534
sa(dp547
g69
I-89
sg70
S'eduroam'
p548
sg72
S'54:75:D0:A4:D8:80'
p549
sg74
g534
sa(dp550
g69
I-71
sg70
S'eduroam'
p551
sg72
S'54:75:D0:A4:CD:D0'
p552
sg74
(I344
I445
tp553
sa(dp554
g69
I-71
sg70
S'ECS-WLAN'
p555
sg72
S'54:75:D0:A4:CD:D1'
p556
sg74
g553
sa(dp557
g69
I-87
sg70
S'ECS-WLAN'
p558
sg72
S'C8:4C:75:D1:FB:D1'
p559
sg74
g553
sa(dp560
g69
I-89
sg70
S'eduroam'
p561
sg72
S'C8:4C:75:D1:FB:D0'
p562
sg74
g553
sa(dp563
g69
I-89
sg70
S'ECS-WLAN'
p564
sg72
S'54:75:D0:A4:D8:81'
p565
sg74
g553
sa(dp566
g69
I-89
sg70
S'eduroam'
p567
sg72
S'54:75:D0:A4:D8:80'
p568
sg74
g553
sa(dp569
g69
I-65
sg70
S'eduroam'
p570
sg72
S'54:75:D0:A4:CD:D0'
p571
sg74
(I323
I400
tp572
sa(dp573
g69
I-65
sg70
S'ECS-WLAN'
p574
sg72
S'54:75:D0:A4:CD:D1'
p575
sg74
g572
sa(dp576
g69
I-85
sg70
S'ECS-WLAN'
p577
sg72
S'C8:4C:75:D1:FB:D1'
p578
sg74
g572
sa(dp579
g69
I-85
sg70
S'eduroam'
p580
sg72
S'C8:4C:75:D1:FB:D0'
p581
sg74
g572
sa(dp582
g69
I-89
sg70
S'ECS-WLAN'
p583
sg72
S'54:75:D0:A4:D8:81'
p584
sg74
g572
sa(dp585
g69
I-91
sg70
S'eduroam'
p586
sg72
S'54:75:D0:A4:D8:80'
p587
sg74
g572
sa(dp588
g69
I-73
sg70
S'ECS-WLAN'
p589
sg72
S'54:75:D0:A4:CD:D1'
p590
sg74
(I455
I516
tp591
sa(dp592
g69
I-75
sg70
S'eduroam'
p593
sg72
S'C8:4C:75:D1:FB:D0'
p594
sg74
g591
sa(dp595
g69
I-91
sg70
S'ECS-WLAN'
p596
sg72
S'54:75:D0:A4:C1:41'
p597
sg74
g591
sa(dp598
g69
I-69
sg70
S'eduroam'
p599
sg72
S'54:75:D0:A4:D8:80'
p600
sg74
(I350
I516
tp601
sa(dp602
g69
I-71
sg70
S'ECS-WLAN'
p603
sg72
S'54:75:D0:A4:D8:81'
p604
sg74
g601
sa(dp605
g69
I-81
sg70
S'eduroam'
p606
sg72
S'54:75:D0:A4:CD:D0'
p607
sg74
g601
sa(dp608
g69
I-81
sg70
S'ECS-WLAN'
p609
sg72
S'54:75:D0:A4:CD:D1'
p610
sg74
g601
sa(dp611
g69
I-81
sg70
S'ECS-WLAN'
p612
sg72
S'54:75:D0:A4:C1:41'
p613
sg74
g601
sa(dp614
g69
I-83
sg70
S'eduroam'
p615
sg72
S'54:75:D0:A4:C1:40'
p616
sg74
g601
sa(dp617
g69
I-85
sg70
S'ECS-WLAN'
p618
sg72
S'C8:4C:75:60:9B:E1'
p619
sg74
g601
sa(dp620
g69
I-87
sg70
S'eduroam'
p621
sg72
S'C8:4C:75:D1:FB:D0'
p622
sg74
g601
sa(dp623
g69
I-91
sg70
S'ECS-WLAN'
p624
sg72
S'C8:4C:75:D1:FD:B1'
p625
sg74
g601
sa(dp626
g69
I-91
sg70
S'eduroam'
p627
sg72
S'C8:4C:75:D1:FD:B0'
p628
sg74
g601
sa(dp629
g69
I-69
sg70
S'eduroam'
p630
sg72
S'54:75:D0:A4:D8:80'
p631
sg74
(I266
I516
tp632
sa(dp633
g69
I-71
sg70
S'ECS-WLAN'
p634
sg72
S'54:75:D0:A4:D8:81'
p635
sg74
g632
sa(dp636
g69
I-81
sg70
S'eduroam'
p637
sg72
S'54:75:D0:A4:CD:D0'
p638
sg74
g632
sa(dp639
g69
I-81
sg70
S'ECS-WLAN'
p640
sg72
S'54:75:D0:A4:CD:D1'
p641
sg74
g632
sa(dp642
g69
I-81
sg70
S'ECS-WLAN'
p643
sg72
S'54:75:D0:A4:C1:41'
p644
sg74
g632
sa(dp645
g69
I-83
sg70
S'eduroam'
p646
sg72
S'54:75:D0:A4:C1:40'
p647
sg74
g632
sa(dp648
g69
I-85
sg70
S'ECS-WLAN'
p649
sg72
S'C8:4C:75:60:9B:E1'
p650
sg74
g632
sa(dp651
g69
I-87
sg70
S'eduroam'
p652
sg72
S'C8:4C:75:D1:FB:D0'
p653
sg74
g632
sa(dp654
g69
I-91
sg70
S'ECS-WLAN'
p655
sg72
S'C8:4C:75:D1:FD:B1'
p656
sg74
g632
sa(dp657
g69
I-91
sg70
S'eduroam'
p658
sg72
S'C8:4C:75:D1:FD:B0'
p659
sg74
g632
sa(dp660
g69
I-65
sg70
S'eduroam'
p661
sg72
S'54:75:D0:A4:D8:80'
p662
sg74
(I197
I514
tp663
sa(dp664
g69
I-83
sg70
S'ECS-WLAN'
p665
sg72
S'C8:4C:75:60:9B:E1'
p666
sg74
g663
sa(dp667
g69
I-83
sg70
S'eduroam'
p668
sg72
S'C8:4C:75:60:9B:E0'
p669
sg74
g663
sa(dp670
g69
I-85
sg70
S'ECS-WLAN'
p671
sg72
S'54:75:D0:A4:CD:D1'
p672
sg74
g663
sa(dp673
g69
I-87
sg70
S'eduroam'
p674
sg72
S'54:75:D0:A4:CD:D0'
p675
sg74
g663
sa(dp676
g69
I-89
sg70
S'eduroam'
p677
sg72
S'C8:4C:75:D1:FB:D0'
p678
sg74
g663
sa(dp679
g69
I-89
sg70
S'ECS-WLAN'
p680
sg72
S'C8:4C:75:D1:FD:B1'
p681
sg74
g663
sa(dp682
g69
I-91
sg70
S'eduroam'
p683
sg72
S'54:75:D0:A4:C1:40'
p684
sg74
g663
sa(dp685
g69
I-89
sg70
S'ECS-WLAN'
p686
sg72
S'54:75:D0:A4:C1:41'
p687
sg74
(I1155
I443
tp688
sa(dp689
g69
I-91
sg70
S'ECS-WLAN'
p690
sg72
S'C8:4C:75:60:9B:E1'
p691
sg74
g688
sa(dp692
g69
I-93
sg70
S'eduroam'
p693
sg72
S'C8:4C:75:60:9B:E0'
p694
sg74
g688
sa(dp695
g69
I-79
sg70
S'ECS-WLAN'
p696
sg72
S'54:75:D0:A4:C1:41'
p697
sg74
(I1076
I379
tp698
sa(dp699
g69
I-79
sg70
S'eduroam'
p700
sg72
S'C8:4C:75:60:9B:E0'
p701
sg74
g698
sa(dp702
g69
I-79
sg70
S'eduroam'
p703
sg72
S'54:75:D0:A4:C1:40'
p704
sg74
g698
sa(dp705
g69
I-81
sg70
S'ECS-WLAN'
p706
sg72
S'C8:4C:75:60:9B:E1'
p707
sg74
g698
sa(dp708
g69
I-85
sg70
S'eduroam'
p709
sg72
S'C8:4C:75:D1:FB:D0'
p710
sg74
g698
sa(dp711
g69
I-85
sg70
S'ECS-WLAN'
p712
sg72
S'C8:4C:75:D1:FB:D1'
p713
sg74
g698
sa(dp714
g69
I-79
sg70
S'ECS-WLAN'
p715
sg72
S'54:75:D0:A4:C1:41'
p716
sg74
(I1031
I348
tp717
sa(dp718
g69
I-79
sg70
S'eduroam'
p719
sg72
S'C8:4C:75:60:9B:E0'
p720
sg74
g717
sa(dp721
g69
I-79
sg70
S'eduroam'
p722
sg72
S'54:75:D0:A4:C1:40'
p723
sg74
g717
sa(dp724
g69
I-81
sg70
S'ECS-WLAN'
p725
sg72
S'C8:4C:75:60:9B:E1'
p726
sg74
g717
sa(dp727
g69
I-85
sg70
S'eduroam'
p728
sg72
S'C8:4C:75:D1:FB:D0'
p729
sg74
g717
sa(dp730
g69
I-85
sg70
S'ECS-WLAN'
p731
sg72
S'C8:4C:75:D1:FB:D1'
p732
sg74
g717
sa(dp733
g69
I-75
sg70
S'eduroam'
p734
sg72
S'C8:4C:75:D1:FB:D0'
p735
sg74
(I947
I390
tp736
sa(dp737
g69
I-75
sg70
S'ECS-WLAN'
p738
sg72
S'C8:4C:75:D1:FB:D1'
p739
sg74
g736
sa(dp740
g69
I-85
sg70
S'eduroam'
p741
sg72
S'C8:4C:75:60:9B:E0'
p742
sg74
g736
sa(dp743
g69
I-87
sg70
S'ECS-WLAN'
p744
sg72
S'54:75:D0:A4:C1:41'
p745
sg74
g736
sa(dp746
g69
I-87
sg70
S'eduroam'
p747
sg72
S'54:75:D0:A4:C1:40'
p748
sg74
g736
sa(dp749
S'power'
p750
I-53
sS'ESSID'
p751
S'eduroam'
p752
sS'BSSID'
p753
S'C8:4C:75:D1:FB:D0'
p754
sS'point'
p755
(I709
I475
tp756
sa(dp757
g750
I-53
sg751
S'ECS-WLAN'
p758
sg753
S'C8:4C:75:D1:FB:D1'
p759
sg755
g756
sa(dp760
g750
I-55
sg751
S'ECS-WLAN'
p761
sg753
S'54:75:D0:A4:C1:41'
p762
sg755
g756
sa(dp763
g750
I-55
sg751
S'eduroam'
p764
sg753
S'54:75:D0:A4:C1:40'
p765
sg755
g756
sa(dp766
g750
I-81
sg751
S'ECS-WLAN'
p767
sg753
S'54:75:D0:A4:D8:81'
p768
sg755
g756
sa(dp769
g750
I-85
sg751
S'eduroam'
p770
sg753
S'54:75:D0:A4:D8:80'
p771
sg755
g756
sa(dp772
g750
I-59
sg751
S'eduroam'
p773
sg753
S'54:75:D0:A4:C1:40'
p774
sg755
(I863
I506
tp775
sa(dp776
g750
I-59
sg751
S'ECS-WLAN'
p777
sg753
S'54:75:D0:A4:C1:41'
p778
sg755
g775
sa(dp779
g750
I-73
sg751
S'eduroam'
p780
sg753
S'C8:4C:75:D1:FB:D0'
p781
sg755
g775
sa(dp782
g750
I-73
sg751
S'ECS-WLAN'
p783
sg753
S'C8:4C:75:D1:FB:D1'
p784
sg755
g775
sa(dp785
g750
I-89
sg751
S'ECS-WLAN'
p786
sg753
S'54:75:D0:A4:D8:81'
p787
sg755
g775
sa(dp788
g750
I-89
sg751
S'eduroam'
p789
sg753
S'54:75:D0:A4:D8:80'
p790
sg755
g775
sa(dp791
g750
I-41
sg751
S'ECS-WLAN'
p792
sg753
S'F4:EA:67:0E:55:71'
p793
sg755
(I822
I8
tp794
sa(dp795
g750
I-41
sg751
S'eduroam'
p796
sg753
S'F4:EA:67:0E:55:70'
p797
sg755
g794
sa(dp798
g750
I-83
sg751
S'ECS-WLAN'
p799
sg753
S'C8:F9:F9:34:4C:11'
p800
sg755
g794
sa(dp801
g750
I-41
sg751
S'ECS-WLAN'
p802
sg753
S'F4:EA:67:0E:55:71'
p803
sg755
(I826
I3
tp804
sa(dp805
g750
I-41
sg751
S'eduroam'
p806
sg753
S'F4:EA:67:0E:55:70'
p807
sg755
g804
sa(dp808
g750
I-83
sg751
S'ECS-WLAN'
p809
sg753
S'C8:F9:F9:34:4C:11'
p810
sg755
g804
sa(dp811
g750
I-41
sg751
S'ECS-WLAN'
p812
sg753
S'F4:EA:67:0E:55:71'
p813
sg755
(I1194
I177
tp814
sa(dp815
g750
I-43
sg751
S'eduroam'
p816
sg753
S'F4:EA:67:0E:55:70'
p817
sg755
g814
sa(dp818
g750
I-81
sg751
S'eduroam'
p819
sg753
S'C8:F9:F9:34:4C:10'
p820
sg755
g814
sa.