(lp0
(dp1
S'power'
p2
I-75
sS'ESSID'
p3
S'ECS-WLAN'
p4
sS'BSSID'
p5
S'F4:EA:67:0E:55:71'
p6
sS'point'
p7
(I1305
I79
tp8
sa(dp9
g2
I-79
sg3
S'ECS-WLAN'
p10
sg5
S'54:75:D0:A4:D8:A1'
p11
sg7
g8
sa(dp12
g2
I-79
sg3
S'eduroam'
p13
sg5
S'54:75:D0:A4:D8:A0'
p14
sg7
g8
sa(dp15
g2
I-85
sg3
S'ECS-WLAN'
p16
sg5
S'C8:4C:75:D1:FF:31'
p17
sg7
g8
sa(dp18
g2
I-87
sg3
S'eduroam'
p19
sg5
S'C8:4C:75:D1:FF:30'
p20
sg7
g8
sa(dp21
g2
I-69
sg3
S'ECS-WLAN'
p22
sg5
S'F4:EA:67:0E:55:71'
p23
sg7
(I1304
I138
tp24
sa(dp25
g2
I-69
sg3
S'eduroam'
p26
sg5
S'F4:EA:67:0E:55:70'
p27
sg7
g24
sa(dp28
g2
I-75
sg3
S'eduroam'
p29
sg5
S'F4:EA:67:0E:52:20'
p30
sg7
g24
sa(dp31
g2
I-77
sg3
S'ECS-WLAN'
p32
sg5
S'F4:EA:67:0E:52:21'
p33
sg7
g24
sa(dp34
g2
I-79
sg3
S'eduroam'
p35
sg5
S'54:75:D0:A4:D8:A0'
p36
sg7
g24
sa(dp37
g2
I-91
sg3
S'ECS-WLAN'
p38
sg5
S'54:75:D0:E7:EF:C1'
p39
sg7
g24
sa(dp40
g2
I-91
sg3
S'eduroam'
p41
sg5
S'54:75:D0:E7:EF:C0'
p42
sg7
g24
sa(dp43
g2
I-79
sg3
S'eduroam'
p44
sg5
S'54:75:D0:A4:D8:A0'
p45
sg7
(I1318
I237
tp46
sa(dp47
g2
I-81
sg3
S'eduroam'
p48
sg5
S'F4:EA:67:0E:55:70'
p49
sg7
g46
sa(dp50
g2
I-81
sg3
S'eduroam'
p51
sg5
S'F4:EA:67:0E:52:20'
p52
sg7
g46
sa(dp53
g2
I-83
sg3
S'eduroam'
p54
sg5
S'C8:4C:75:D1:FF:30'
p55
sg7
g46
sa(dp56
g2
I-87
sg3
S'ECS-WLAN'
p57
sg5
S'C8:4C:75:D1:FF:31'
p58
sg7
g46
sa(dp59
g2
I-75
sg3
S'ECS-WLAN'
p60
sg5
S'C8:4C:75:D1:FF:31'
p61
sg7
(I1310
I284
tp62
sa(dp63
g2
I-81
sg3
S'eduroam'
p64
sg5
S'F4:EA:67:0E:52:20'
p65
sg7
g62
sa(dp66
g2
I-81
sg3
S'ECS-WLAN'
p67
sg5
S'F4:EA:67:0E:52:21'
p68
sg7
g62
sa(dp69
g2
I-83
sg3
S'ECS-WLAN'
p70
sg5
S'54:75:D0:E7:EF:C1'
p71
sg7
g62
sa(dp72
g2
I-85
sg3
S'ECS-WLAN'
p73
sg5
S'F4:EA:67:0E:55:71'
p74
sg7
g62
sa(dp75
g2
I-85
sg3
S'eduroam'
p76
sg5
S'54:75:D0:E7:EF:C0'
p77
sg7
g62
sa(dp78
g2
I-71
sg3
S'ECS-WLAN'
p79
sg5
S'54:75:D0:A4:D8:A1'
p80
sg7
(I1305
I357
tp81
sa(dp82
g2
I-75
sg3
S'eduroam'
p83
sg5
S'C8:4C:75:D1:FF:30'
p84
sg7
g81
sa(dp85
g2
I-81
sg3
S'ECS-WLAN'
p86
sg5
S'F4:EA:67:0E:52:21'
p87
sg7
g81
sa(dp88
g2
I-85
sg3
S'eduroam'
p89
sg5
S'54:75:D0:E7:EF:C0'
p90
sg7
g81
sa(dp91
g2
I-85
sg3
S'ECS-WLAN'
p92
sg5
S'54:75:D0:E7:EF:C1'
p93
sg7
g81
sa(dp94
g2
I-73
sg3
S'eduroam'
p95
sg5
S'C8:4C:75:D1:FF:30'
p96
sg7
(I1301
I431
tp97
sa(dp98
g2
I-73
sg3
S'ECS-WLAN'
p99
sg5
S'C8:4C:75:D1:FF:31'
p100
sg7
g97
sa(dp101
g2
I-75
sg3
S'eduroam'
p102
sg5
S'54:75:D0:E7:EF:C0'
p103
sg7
g97
sa(dp104
g2
I-75
sg3
S'ECS-WLAN'
p105
sg5
S'54:75:D0:E7:EF:C1'
p106
sg7
g97
sa(dp107
g2
I-79
sg3
S'eduroam'
p108
sg5
S'54:75:D0:A4:D8:A0'
p109
sg7
g97
sa(dp110
g2
I-81
sg3
S'ECS-WLAN'
p111
sg5
S'54:75:D0:A4:D8:A1'
p112
sg7
g97
sa(dp113
g2
I-83
sg3
S'eduroam'
p114
sg5
S'A0:CF:5B:0F:96:20'
p115
sg7
g97
sa(dp116
g2
I-83
sg3
S'ECS-WLAN'
p117
sg5
S'A0:CF:5B:0F:96:21'
p118
sg7
g97
sa(dp119
g2
I-43
sg3
S'eduroam'
p120
sg5
S'C8:4C:75:D1:FF:30'
p121
sg7
(I1298
I495
tp122
sa(dp123
g2
I-43
sg3
S'ECS-WLAN'
p124
sg5
S'C8:4C:75:D1:FF:31'
p125
sg7
g122
sa(dp126
g2
I-53
sg3
S'ECS-WLAN'
p127
sg5
S'54:75:D0:E7:EF:C1'
p128
sg7
g122
sa(dp129
g2
I-53
sg3
S'eduroam'
p130
sg5
S'54:75:D0:E7:EF:C0'
p131
sg7
g122
sa(dp132
g2
I-73
sg3
S'eduroam'
p133
sg5
S'A0:CF:5B:0F:96:20'
p134
sg7
g122
sa(dp135
g2
I-73
sg3
S'ECS-WLAN'
p136
sg5
S'A0:CF:5B:0F:96:21'
p137
sg7
g122
sa(dp138
g2
I-77
sg3
S'eduroam'
p139
sg5
S'F4:EA:67:0E:52:20'
p140
sg7
g122
sa(dp141
g2
I-83
sg3
S'eduroam'
p142
sg5
S'C8:4C:75:D1:FD:B0'
p143
sg7
g122
sa(dp144
g2
I-83
sg3
S'ECS-WLAN'
p145
sg5
S'C8:4C:75:D1:FD:B1'
p146
sg7
g122
sa(dp147
g2
I-47
sg3
S'ECS-WLAN'
p148
sg5
S'C8:4C:75:D1:FF:31'
p149
sg7
(I1238
I504
tp150
sa(dp151
g2
I-49
sg3
S'eduroam'
p152
sg5
S'C8:4C:75:D1:FF:30'
p153
sg7
g150
sa(dp154
g2
I-51
sg3
S'eduroam'
p155
sg5
S'54:75:D0:E7:EF:C0'
p156
sg7
g150
sa(dp157
g2
I-53
sg3
S'ECS-WLAN'
p158
sg5
S'54:75:D0:E7:EF:C1'
p159
sg7
g150
sa(dp160
g2
I-67
sg3
S'eduroam'
p161
sg5
S'A0:CF:5B:0F:96:20'
p162
sg7
g150
sa(dp163
g2
I-67
sg3
S'ECS-WLAN'
p164
sg5
S'A0:CF:5B:0F:96:21'
p165
sg7
g150
sa(dp166
g2
I-79
sg3
S'ECS-WLAN'
p167
sg5
S'F4:EA:67:0E:52:21'
p168
sg7
g150
sa(dp169
g2
I-47
sg3
S'ECS-WLAN'
p170
sg5
S'C8:4C:75:D1:FF:31'
p171
sg7
(I1168
I505
tp172
sa(dp173
g2
I-49
sg3
S'eduroam'
p174
sg5
S'C8:4C:75:D1:FF:30'
p175
sg7
g172
sa(dp176
g2
I-51
sg3
S'eduroam'
p177
sg5
S'54:75:D0:E7:EF:C0'
p178
sg7
g172
sa(dp179
g2
I-53
sg3
S'ECS-WLAN'
p180
sg5
S'54:75:D0:E7:EF:C1'
p181
sg7
g172
sa(dp182
g2
I-67
sg3
S'eduroam'
p183
sg5
S'A0:CF:5B:0F:96:20'
p184
sg7
g172
sa(dp185
g2
I-67
sg3
S'ECS-WLAN'
p186
sg5
S'A0:CF:5B:0F:96:21'
p187
sg7
g172
sa(dp188
g2
I-79
sg3
S'ECS-WLAN'
p189
sg5
S'F4:EA:67:0E:52:21'
p190
sg7
g172
sa(dp191
g2
I-67
sg3
S'eduroam'
p192
sg5
S'C8:4C:75:D1:FF:30'
p193
sg7
(I1167
I431
tp194
sa(dp195
g2
I-67
sg3
S'ECS-WLAN'
p196
sg5
S'C8:4C:75:D1:FF:31'
p197
sg7
g194
sa(dp198
g2
I-83
sg3
S'eduroam'
p199
sg5
S'A0:CF:5B:0F:96:20'
p200
sg7
g194
sa(dp201
g2
I-83
sg3
S'ECS-WLAN'
p202
sg5
S'A0:CF:5B:0F:96:21'
p203
sg7
g194
sa(dp204
g2
I-83
sg3
S'ECS-WLAN'
p205
sg5
S'F4:EA:67:0E:52:21'
p206
sg7
g194
sa(dp207
g2
I-85
sg3
S'eduroam'
p208
sg5
S'F4:EA:67:0E:52:20'
p209
sg7
g194
sa(dp210
g2
I-87
sg3
S'eduroam'
p211
sg5
S'54:75:D0:E7:EF:C0'
p212
sg7
g194
sa(dp213
g2
I-87
sg3
S'ECS-WLAN'
p214
sg5
S'54:75:D0:E7:EF:C1'
p215
sg7
g194
sa(dp216
g2
I-41
sg3
S'ECS-WLAN'
p217
sg5
S'C8:4C:75:D1:FF:31'
p218
sg7
(I1098
I509
tp219
sa(dp220
g2
I-43
sg3
S'eduroam'
p221
sg5
S'C8:4C:75:D1:FF:30'
p222
sg7
g219
sa(dp223
g2
I-59
sg3
S'ECS-WLAN'
p224
sg5
S'54:75:D0:E7:EF:C1'
p225
sg7
g219
sa(dp226
g2
I-59
sg3
S'eduroam'
p227
sg5
S'54:75:D0:E7:EF:C0'
p228
sg7
g219
sa(dp229
g2
I-61
sg3
S'eduroam'
p230
sg5
S'F4:EA:67:0E:52:20'
p231
sg7
g219
sa(dp232
g2
I-63
sg3
S'ECS-WLAN'
p233
sg5
S'A0:CF:5B:0F:96:21'
p234
sg7
g219
sa(dp235
g2
I-63
sg3
S'eduroam'
p236
sg5
S'A0:CF:5B:0F:96:20'
p237
sg7
g219
sa(dp238
g2
I-63
sg3
S'ECS-WLAN'
p239
sg5
S'F4:EA:67:0E:52:21'
p240
sg7
g219
sa(dp241
g2
I-85
sg3
S'eduroam'
p242
sg5
S'C8:4C:75:D1:FD:B0'
p243
sg7
g219
sa(dp244
g2
I-85
sg3
S'ECS-WLAN'
p245
sg5
S'C8:4C:75:D1:FD:B1'
p246
sg7
g219
sa(dp247
g2
I-87
sg3
S'eduroam'
p248
sg5
S'C8:4C:75:60:9B:E0'
p249
sg7
g219
sa(dp250
g2
I-87
sg3
S'eduroam'
p251
sg5
S'54:75:D0:A4:D8:A0'
p252
sg7
g219
sa(dp253
g2
I-41
sg3
S'ECS-WLAN'
p254
sg5
S'C8:4C:75:D1:FF:31'
p255
sg7
(I1037
I510
tp256
sa(dp257
g2
I-43
sg3
S'eduroam'
p258
sg5
S'C8:4C:75:D1:FF:30'
p259
sg7
g256
sa(dp260
g2
I-59
sg3
S'ECS-WLAN'
p261
sg5
S'54:75:D0:E7:EF:C1'
p262
sg7
g256
sa(dp263
g2
I-59
sg3
S'eduroam'
p264
sg5
S'54:75:D0:E7:EF:C0'
p265
sg7
g256
sa(dp266
g2
I-61
sg3
S'eduroam'
p267
sg5
S'F4:EA:67:0E:52:20'
p268
sg7
g256
sa(dp269
g2
I-61
sg3
S'ECS-WLAN'
p270
sg5
S'F4:EA:67:0E:52:21'
p271
sg7
g256
sa(dp272
g2
I-63
sg3
S'ECS-WLAN'
p273
sg5
S'A0:CF:5B:0F:96:21'
p274
sg7
g256
sa(dp275
g2
I-63
sg3
S'eduroam'
p276
sg5
S'A0:CF:5B:0F:96:20'
p277
sg7
g256
sa(dp278
g2
I-85
sg3
S'eduroam'
p279
sg5
S'C8:4C:75:D1:FD:B0'
p280
sg7
g256
sa(dp281
g2
I-85
sg3
S'ECS-WLAN'
p282
sg5
S'C8:4C:75:D1:FD:B1'
p283
sg7
g256
sa(dp284
g2
I-87
sg3
S'eduroam'
p285
sg5
S'C8:4C:75:60:9B:E0'
p286
sg7
g256
sa(dp287
g2
I-87
sg3
S'eduroam'
p288
sg5
S'54:75:D0:A4:D8:A0'
p289
sg7
g256
sa(dp290
g2
I-37
sg3
S'ECS-WLAN'
p291
sg5
S'C8:4C:75:D1:FF:31'
p292
sg7
(I1019
I459
tp293
sa(dp294
g2
I-37
sg3
S'eduroam'
p295
sg5
S'C8:4C:75:D1:FF:30'
p296
sg7
g293
sa(dp297
g2
I-59
sg3
S'eduroam'
p298
sg5
S'A0:CF:5B:0F:96:20'
p299
sg7
g293
sa(dp300
g2
I-59
sg3
S'ECS-WLAN'
p301
sg5
S'A0:CF:5B:0F:96:21'
p302
sg7
g293
sa(dp303
g2
I-59
sg3
S'eduroam'
p304
sg5
S'F4:EA:67:0E:52:20'
p305
sg7
g293
sa(dp306
g2
I-59
sg3
S'ECS-WLAN'
p307
sg5
S'F4:EA:67:0E:52:21'
p308
sg7
g293
sa(dp309
g2
I-63
sg3
S'eduroam'
p310
sg5
S'54:75:D0:E7:EF:C0'
p311
sg7
g293
sa(dp312
g2
I-65
sg3
S'ECS-WLAN'
p313
sg5
S'54:75:D0:E7:EF:C1'
p314
sg7
g293
sa(dp315
g2
I-83
sg3
S'ECS-WLAN'
p316
sg5
S'54:75:D0:A4:D8:A1'
p317
sg7
g293
sa(dp318
g2
I-85
sg3
S'eduroam'
p319
sg5
S'54:75:D0:A4:D8:A0'
p320
sg7
g293
sa(dp321
g2
I-91
sg3
S'eduroam'
p322
sg5
S'C8:4C:75:60:9B:E0'
p323
sg7
g293
sa(dp324
g2
I-61
sg3
S'ECS-WLAN'
p325
sg5
S'C8:4C:75:D1:FF:31'
p326
sg7
(I1110
I456
tp327
sa(dp328
g2
I-61
sg3
S'eduroam'
p329
sg5
S'C8:4C:75:D1:FF:30'
p330
sg7
g327
sa(dp331
g2
I-75
sg3
S'eduroam'
p332
sg5
S'54:75:D0:E7:EF:C0'
p333
sg7
g327
sa(dp334
g2
I-77
sg3
S'ECS-WLAN'
p335
sg5
S'54:75:D0:E7:EF:C1'
p336
sg7
g327
sa(dp337
g2
I-79
sg3
S'eduroam'
p338
sg5
S'F4:EA:67:0E:52:20'
p339
sg7
g327
sa(dp340
g2
I-79
sg3
S'ECS-WLAN'
p341
sg5
S'F4:EA:67:0E:52:21'
p342
sg7
g327
sa(dp343
g2
I-57
sg3
S'ECS-WLAN'
p344
sg5
S'C8:4C:75:D1:FF:31'
p345
sg7
(I1070
I456
tp346
sa(dp347
g2
I-59
sg3
S'eduroam'
p348
sg5
S'C8:4C:75:D1:FF:30'
p349
sg7
g346
sa(dp350
g2
I-77
sg3
S'eduroam'
p351
sg5
S'F4:EA:67:0E:52:20'
p352
sg7
g346
sa(dp353
g2
I-77
sg3
S'ECS-WLAN'
p354
sg5
S'F4:EA:67:0E:52:21'
p355
sg7
g346
sa(dp356
g2
I-79
sg3
S'ECS-WLAN'
p357
sg5
S'A0:CF:5B:0F:96:21'
p358
sg7
g346
sa(dp359
g2
I-83
sg3
S'ECS-WLAN'
p360
sg5
S'54:75:D0:E7:EF:C1'
p361
sg7
g346
sa(dp362
g2
I-57
sg3
S'ECS-WLAN'
p363
sg5
S'C8:4C:75:D1:FF:31'
p364
sg7
(I1088
I419
tp365
sa(dp366
g2
I-59
sg3
S'eduroam'
p367
sg5
S'C8:4C:75:D1:FF:30'
p368
sg7
g365
sa(dp369
g2
I-77
sg3
S'eduroam'
p370
sg5
S'F4:EA:67:0E:52:20'
p371
sg7
g365
sa(dp372
g2
I-77
sg3
S'ECS-WLAN'
p373
sg5
S'F4:EA:67:0E:52:21'
p374
sg7
g365
sa(dp375
g2
I-79
sg3
S'ECS-WLAN'
p376
sg5
S'A0:CF:5B:0F:96:21'
p377
sg7
g365
sa(dp378
g2
I-83
sg3
S'ECS-WLAN'
p379
sg5
S'54:75:D0:E7:EF:C1'
p380
sg7
g365
sa(dp381
g2
I-51
sg3
S'eduroam'
p382
sg5
S'C8:4C:75:D1:FF:30'
p383
sg7
(I955
I586
tp384
sa(dp385
g2
I-51
sg3
S'ECS-WLAN'
p386
sg5
S'C8:4C:75:D1:FF:31'
p387
sg7
g384
sa(dp388
g2
I-75
sg3
S'ECS-WLAN'
p389
sg5
S'F4:EA:67:0E:52:21'
p390
sg7
g384
sa(dp391
g2
I-75
sg3
S'eduroam'
p392
sg5
S'F4:EA:67:0E:52:20'
p393
sg7
g384
sa(dp394
g2
I-77
sg3
S'eduroam'
p395
sg5
S'54:75:D0:E7:EF:C0'
p396
sg7
g384
sa(dp397
g2
I-77
sg3
S'ECS-WLAN'
p398
sg5
S'54:75:D0:E7:EF:C1'
p399
sg7
g384
sa(dp400
g2
I-51
sg3
S'eduroam'
p401
sg5
S'C8:4C:75:D1:FF:30'
p402
sg7
(I1045
I585
tp403
sa(dp404
g2
I-51
sg3
S'ECS-WLAN'
p405
sg5
S'C8:4C:75:D1:FF:31'
p406
sg7
g403
sa(dp407
g2
I-75
sg3
S'ECS-WLAN'
p408
sg5
S'F4:EA:67:0E:52:21'
p409
sg7
g403
sa(dp410
g2
I-75
sg3
S'eduroam'
p411
sg5
S'F4:EA:67:0E:52:20'
p412
sg7
g403
sa(dp413
g2
I-77
sg3
S'eduroam'
p414
sg5
S'54:75:D0:E7:EF:C0'
p415
sg7
g403
sa(dp416
g2
I-77
sg3
S'ECS-WLAN'
p417
sg5
S'54:75:D0:E7:EF:C1'
p418
sg7
g403
sa(dp419
g2
I-51
sg3
S'eduroam'
p420
sg5
S'C8:4C:75:D1:FF:30'
p421
sg7
(I1015
I663
tp422
sa(dp423
g2
I-51
sg3
S'ECS-WLAN'
p424
sg5
S'C8:4C:75:D1:FF:31'
p425
sg7
g422
sa(dp426
g2
I-75
sg3
S'ECS-WLAN'
p427
sg5
S'F4:EA:67:0E:52:21'
p428
sg7
g422
sa(dp429
g2
I-75
sg3
S'eduroam'
p430
sg5
S'F4:EA:67:0E:52:20'
p431
sg7
g422
sa(dp432
g2
I-77
sg3
S'eduroam'
p433
sg5
S'54:75:D0:E7:EF:C0'
p434
sg7
g422
sa(dp435
g2
I-77
sg3
S'ECS-WLAN'
p436
sg5
S'54:75:D0:E7:EF:C1'
p437
sg7
g422
sa(dp438
g2
I-47
sg3
S'ECS-WLAN'
p439
sg5
S'C8:4C:75:D1:FF:31'
p440
sg7
(I962
I447
tp441
sa(dp442
g2
I-49
sg3
S'eduroam'
p443
sg5
S'C8:4C:75:D1:FF:30'
p444
sg7
g441
sa(dp445
g2
I-57
sg3
S'eduroam'
p446
sg5
S'F4:EA:67:0E:52:20'
p447
sg7
g441
sa(dp448
g2
I-59
sg3
S'ECS-WLAN'
p449
sg5
S'F4:EA:67:0E:52:21'
p450
sg7
g441
sa(dp451
g2
I-67
sg3
S'eduroam'
p452
sg5
S'A0:CF:5B:0F:96:20'
p453
sg7
g441
sa(dp454
g2
I-67
sg3
S'ECS-WLAN'
p455
sg5
S'A0:CF:5B:0F:96:21'
p456
sg7
g441
sa(dp457
g2
I-77
sg3
S'ECS-WLAN'
p458
sg5
S'54:75:D0:E7:EF:C1'
p459
sg7
g441
sa(dp460
g2
I-77
sg3
S'eduroam'
p461
sg5
S'54:75:D0:E7:EF:C0'
p462
sg7
g441
sa(dp463
g2
I-39
sg3
S'eduroam'
p464
sg5
S'C8:4C:75:D1:FF:30'
p465
sg7
(I997
I507
tp466
sa(dp467
g2
I-39
sg3
S'ECS-WLAN'
p468
sg5
S'C8:4C:75:D1:FF:31'
p469
sg7
g466
sa(dp470
g2
I-57
sg3
S'ECS-WLAN'
p471
sg5
S'54:75:D0:E7:EF:C1'
p472
sg7
g466
sa(dp473
g2
I-57
sg3
S'eduroam'
p474
sg5
S'54:75:D0:E7:EF:C0'
p475
sg7
g466
sa(dp476
g2
I-59
sg3
S'eduroam'
p477
sg5
S'F4:EA:67:0E:52:20'
p478
sg7
g466
sa(dp479
g2
I-61
sg3
S'ECS-WLAN'
p480
sg5
S'F4:EA:67:0E:52:21'
p481
sg7
g466
sa(dp482
g2
I-65
sg3
S'ECS-WLAN'
p483
sg5
S'A0:CF:5B:0F:96:21'
p484
sg7
g466
sa(dp485
g2
I-65
sg3
S'eduroam'
p486
sg5
S'A0:CF:5B:0F:96:20'
p487
sg7
g466
sa(dp488
g2
I-79
sg3
S'ECS-WLAN'
p489
sg5
S'54:75:D0:A4:D8:A1'
p490
sg7
g466
sa(dp491
g2
I-81
sg3
S'ECS-WLAN'
p492
sg5
S'C8:4C:75:D1:FD:B1'
p493
sg7
g466
sa(dp494
g2
I-85
sg3
S'eduroam'
p495
sg5
S'C8:4C:75:D1:FD:B0'
p496
sg7
g466
sa(dp497
g2
I-35
sg3
S'eduroam'
p498
sg5
S'C8:4C:75:D1:FF:30'
p499
sg7
(I931
I511
tp500
sa(dp501
g2
I-33
sg3
S'ECS-WLAN'
p502
sg5
S'C8:4C:75:D1:FF:31'
p503
sg7
g500
sa(dp504
g2
I-57
sg3
S'eduroam'
p505
sg5
S'54:75:D0:E7:EF:C0'
p506
sg7
g500
sa(dp507
g2
I-59
sg3
S'eduroam'
p508
sg5
S'F4:EA:67:0E:52:20'
p509
sg7
g500
sa(dp510
g2
I-59
sg3
S'ECS-WLAN'
p511
sg5
S'F4:EA:67:0E:52:21'
p512
sg7
g500
sa(dp513
g2
I-59
sg3
S'ECS-WLAN'
p514
sg5
S'54:75:D0:E7:EF:C1'
p515
sg7
g500
sa(dp516
g2
I-69
sg3
S'eduroam'
p517
sg5
S'A0:CF:5B:0F:96:20'
p518
sg7
g500
sa(dp519
g2
I-69
sg3
S'ECS-WLAN'
p520
sg5
S'A0:CF:5B:0F:96:21'
p521
sg7
g500
sa(dp522
g2
I-85
sg3
S'ECS-WLAN'
p523
sg5
S'C8:4C:75:D1:FD:B1'
p524
sg7
g500
sa(dp525
g2
I-85
sg3
S'eduroam'
p526
sg5
S'C8:4C:75:D1:FD:B0'
p527
sg7
g500
sa(dp528
g2
I-33
sg3
S'eduroam'
p529
sg5
S'C8:4C:75:D1:FF:30'
p530
sg7
(I886
I511
tp531
sa(dp532
g2
I-31
sg3
S'ECS-WLAN'
p533
sg5
S'C8:4C:75:D1:FF:31'
p534
sg7
g531
sa(dp535
g2
I-55
sg3
S'eduroam'
p536
sg5
S'54:75:D0:E7:EF:C0'
p537
sg7
g531
sa(dp538
g2
I-55
sg3
S'ECS-WLAN'
p539
sg5
S'54:75:D0:E7:EF:C1'
p540
sg7
g531
sa(dp541
g2
I-63
sg3
S'eduroam'
p542
sg5
S'F4:EA:67:0E:52:20'
p543
sg7
g531
sa(dp544
g2
I-63
sg3
S'ECS-WLAN'
p545
sg5
S'F4:EA:67:0E:52:21'
p546
sg7
g531
sa(dp547
g2
I-67
sg3
S'eduroam'
p548
sg5
S'A0:CF:5B:0F:96:20'
p549
sg7
g531
sa(dp550
g2
I-69
sg3
S'ECS-WLAN'
p551
sg5
S'A0:CF:5B:0F:96:21'
p552
sg7
g531
sa(dp553
g2
I-89
sg3
S'eduroam'
p554
sg5
S'C8:4C:75:D1:FD:B0'
p555
sg7
g531
sa(dp556
g2
I-33
sg3
S'eduroam'
p557
sg5
S'C8:4C:75:D1:FF:30'
p558
sg7
(I841
I511
tp559
sa(dp560
g2
I-31
sg3
S'ECS-WLAN'
p561
sg5
S'C8:4C:75:D1:FF:31'
p562
sg7
g559
sa(dp563
g2
I-55
sg3
S'eduroam'
p564
sg5
S'54:75:D0:E7:EF:C0'
p565
sg7
g559
sa(dp566
g2
I-55
sg3
S'ECS-WLAN'
p567
sg5
S'54:75:D0:E7:EF:C1'
p568
sg7
g559
sa(dp569
g2
I-63
sg3
S'eduroam'
p570
sg5
S'F4:EA:67:0E:52:20'
p571
sg7
g559
sa(dp572
g2
I-63
sg3
S'ECS-WLAN'
p573
sg5
S'F4:EA:67:0E:52:21'
p574
sg7
g559
sa(dp575
g2
I-67
sg3
S'eduroam'
p576
sg5
S'A0:CF:5B:0F:96:20'
p577
sg7
g559
sa(dp578
g2
I-69
sg3
S'ECS-WLAN'
p579
sg5
S'A0:CF:5B:0F:96:21'
p580
sg7
g559
sa(dp581
g2
I-89
sg3
S'eduroam'
p582
sg5
S'C8:4C:75:D1:FD:B0'
p583
sg7
g559
sa(dp584
g2
I-43
sg3
S'eduroam'
p585
sg5
S'C8:4C:75:D1:FF:30'
p586
sg7
(I807
I511
tp587
sa(dp588
g2
I-43
sg3
S'ECS-WLAN'
p589
sg5
S'C8:4C:75:D1:FF:31'
p590
sg7
g587
sa(dp591
g2
I-61
sg3
S'ECS-WLAN'
p592
sg5
S'54:75:D0:E7:EF:C1'
p593
sg7
g587
sa(dp594
g2
I-61
sg3
S'eduroam'
p595
sg5
S'54:75:D0:E7:EF:C0'
p596
sg7
g587
sa(dp597
g2
I-63
sg3
S'eduroam'
p598
sg5
S'F4:EA:67:0E:52:20'
p599
sg7
g587
sa(dp600
g2
I-65
sg3
S'ECS-WLAN'
p601
sg5
S'F4:EA:67:0E:52:21'
p602
sg7
g587
sa(dp603
g2
I-71
sg3
S'ECS-WLAN'
p604
sg5
S'A0:CF:5B:0F:96:21'
p605
sg7
g587
sa(dp606
g2
I-71
sg3
S'eduroam'
p607
sg5
S'A0:CF:5B:0F:96:20'
p608
sg7
g587
sa(dp609
g2
I-83
sg3
S'ECS-WLAN'
p610
sg5
S'C8:4C:75:D1:FD:B1'
p611
sg7
g587
sa(dp612
g2
I-89
sg3
S'eduroam'
p613
sg5
S'54:75:D0:A4:D8:A0'
p614
sg7
g587
sa(dp615
g2
I-89
sg3
S'ECS-WLAN'
p616
sg5
S'54:75:D0:A4:D8:A1'
p617
sg7
g587
sa(dp618
g2
I-43
sg3
S'eduroam'
p619
sg5
S'C8:4C:75:D1:FF:30'
p620
sg7
(I759
I498
tp621
sa(dp622
g2
I-43
sg3
S'ECS-WLAN'
p623
sg5
S'C8:4C:75:D1:FF:31'
p624
sg7
g621
sa(dp625
g2
I-61
sg3
S'ECS-WLAN'
p626
sg5
S'54:75:D0:E7:EF:C1'
p627
sg7
g621
sa(dp628
g2
I-61
sg3
S'eduroam'
p629
sg5
S'54:75:D0:E7:EF:C0'
p630
sg7
g621
sa(dp631
g2
I-63
sg3
S'eduroam'
p632
sg5
S'F4:EA:67:0E:52:20'
p633
sg7
g621
sa(dp634
g2
I-65
sg3
S'ECS-WLAN'
p635
sg5
S'F4:EA:67:0E:52:21'
p636
sg7
g621
sa(dp637
g2
I-71
sg3
S'ECS-WLAN'
p638
sg5
S'A0:CF:5B:0F:96:21'
p639
sg7
g621
sa(dp640
g2
I-71
sg3
S'eduroam'
p641
sg5
S'A0:CF:5B:0F:96:20'
p642
sg7
g621
sa(dp643
g2
I-83
sg3
S'ECS-WLAN'
p644
sg5
S'C8:4C:75:D1:FD:B1'
p645
sg7
g621
sa(dp646
g2
I-89
sg3
S'eduroam'
p647
sg5
S'54:75:D0:A4:D8:A0'
p648
sg7
g621
sa(dp649
g2
I-89
sg3
S'ECS-WLAN'
p650
sg5
S'54:75:D0:A4:D8:A1'
p651
sg7
g621
sa(dp652
g2
I-65
sg3
S'eduroam'
p653
sg5
S'54:75:D0:E7:EF:C0'
p654
sg7
(I528
I417
tp655
sa(dp656
g2
I-65
sg3
S'ECS-WLAN'
p657
sg5
S'54:75:D0:E7:EF:C1'
p658
sg7
g655
sa(dp659
g2
I-77
sg3
S'ECS-WLAN'
p660
sg5
S'F4:EA:67:0E:52:21'
p661
sg7
g655
sa(dp662
g2
I-83
sg3
S'ECS-WLAN'
p663
sg5
S'C8:4C:75:D1:FD:B1'
p664
sg7
g655
sa(dp665
g2
I-87
sg3
S'ECS-WLAN'
p666
sg5
S'F4:EA:67:0E:56:D1'
p667
sg7
g655
sa(dp668
g2
I-89
sg3
S'eduroam'
p669
sg5
S'C8:4C:75:D1:FF:30'
p670
sg7
g655
sa(dp671
g2
I-89
sg3
S'ECS-WLAN'
p672
sg5
S'C8:4C:75:D1:FF:31'
p673
sg7
g655
sa(dp674
g2
I-65
sg3
S'eduroam'
p675
sg5
S'54:75:D0:E7:EF:C0'
p676
sg7
(I527
I375
tp677
sa(dp678
g2
I-65
sg3
S'ECS-WLAN'
p679
sg5
S'54:75:D0:E7:EF:C1'
p680
sg7
g677
sa(dp681
g2
I-77
sg3
S'ECS-WLAN'
p682
sg5
S'F4:EA:67:0E:52:21'
p683
sg7
g677
sa(dp684
g2
I-83
sg3
S'ECS-WLAN'
p685
sg5
S'C8:4C:75:D1:FD:B1'
p686
sg7
g677
sa(dp687
g2
I-87
sg3
S'ECS-WLAN'
p688
sg5
S'F4:EA:67:0E:56:D1'
p689
sg7
g677
sa(dp690
g2
I-89
sg3
S'eduroam'
p691
sg5
S'C8:4C:75:D1:FF:30'
p692
sg7
g677
sa(dp693
g2
I-89
sg3
S'ECS-WLAN'
p694
sg5
S'C8:4C:75:D1:FF:31'
p695
sg7
g677
sa(dp696
g2
I-73
sg3
S'ECS-WLAN'
p697
sg5
S'54:75:D0:E7:EF:C1'
p698
sg7
(I462
I381
tp699
sa(dp700
g2
I-73
sg3
S'eduroam'
p701
sg5
S'54:75:D0:E7:EF:C0'
p702
sg7
g699
sa(dp703
g2
I-75
sg3
S'eduroam'
p704
sg5
S'F4:EA:67:0E:52:20'
p705
sg7
g699
sa(dp706
g2
I-75
sg3
S'ECS-WLAN'
p707
sg5
S'F4:EA:67:0E:52:21'
p708
sg7
g699
sa(dp709
g2
I-83
sg3
S'ECS-WLAN'
p710
sg5
S'C8:4C:75:D1:FD:B1'
p711
sg7
g699
sa(dp712
g2
I-85
sg3
S'eduroam'
p713
sg5
S'F4:EA:67:0E:56:D0'
p714
sg7
g699
sa(dp715
g2
I-85
sg3
S'ECS-WLAN'
p716
sg5
S'F4:EA:67:0E:56:D1'
p717
sg7
g699
sa(dp718
g2
I-87
sg3
S'eduroam'
p719
sg5
S'C8:4C:75:D1:FF:30'
p720
sg7
g699
sa(dp721
g2
I-73
sg3
S'ECS-WLAN'
p722
sg5
S'54:75:D0:E7:EF:C1'
p723
sg7
(I446
I433
tp724
sa(dp725
g2
I-73
sg3
S'eduroam'
p726
sg5
S'54:75:D0:E7:EF:C0'
p727
sg7
g724
sa(dp728
g2
I-75
sg3
S'eduroam'
p729
sg5
S'F4:EA:67:0E:52:20'
p730
sg7
g724
sa(dp731
g2
I-75
sg3
S'ECS-WLAN'
p732
sg5
S'F4:EA:67:0E:52:21'
p733
sg7
g724
sa(dp734
g2
I-83
sg3
S'ECS-WLAN'
p735
sg5
S'C8:4C:75:D1:FD:B1'
p736
sg7
g724
sa(dp737
g2
I-85
sg3
S'eduroam'
p738
sg5
S'F4:EA:67:0E:56:D0'
p739
sg7
g724
sa(dp740
g2
I-85
sg3
S'ECS-WLAN'
p741
sg5
S'F4:EA:67:0E:56:D1'
p742
sg7
g724
sa(dp743
g2
I-87
sg3
S'eduroam'
p744
sg5
S'C8:4C:75:D1:FF:30'
p745
sg7
g724
sa(dp746
g2
I-73
sg3
S'ECS-WLAN'
p747
sg5
S'54:75:D0:E7:EF:C1'
p748
sg7
(I605
I368
tp749
sa(dp750
g2
I-73
sg3
S'eduroam'
p751
sg5
S'54:75:D0:E7:EF:C0'
p752
sg7
g749
sa(dp753
g2
I-75
sg3
S'eduroam'
p754
sg5
S'F4:EA:67:0E:52:20'
p755
sg7
g749
sa(dp756
g2
I-75
sg3
S'ECS-WLAN'
p757
sg5
S'F4:EA:67:0E:52:21'
p758
sg7
g749
sa(dp759
g2
I-83
sg3
S'ECS-WLAN'
p760
sg5
S'C8:4C:75:D1:FD:B1'
p761
sg7
g749
sa(dp762
g2
I-85
sg3
S'eduroam'
p763
sg5
S'F4:EA:67:0E:56:D0'
p764
sg7
g749
sa(dp765
g2
I-85
sg3
S'ECS-WLAN'
p766
sg5
S'F4:EA:67:0E:56:D1'
p767
sg7
g749
sa(dp768
g2
I-87
sg3
S'eduroam'
p769
sg5
S'C8:4C:75:D1:FF:30'
p770
sg7
g749
sa(dp771
g2
I-71
sg3
S'eduroam'
p772
sg5
S'54:75:D0:E7:EF:C0'
p773
sg7
(I287
I323
tp774
sa(dp775
g2
I-73
sg3
S'eduroam'
p776
sg5
S'F4:EA:67:0E:56:D0'
p777
sg7
g774
sa(dp778
g2
I-73
sg3
S'ECS-WLAN'
p779
sg5
S'F4:EA:67:0E:52:21'
p780
sg7
g774
sa(dp781
g2
I-75
sg3
S'ECS-WLAN'
p782
sg5
S'F4:EA:67:0E:56:D1'
p783
sg7
g774
sa(dp784
g2
I-89
sg3
S'ECS-WLAN'
p785
sg5
S'C8:4C:75:D1:FD:B1'
p786
sg7
g774
sa(dp787
g2
I-91
sg3
S'eduroam'
p788
sg5
S'C8:4C:75:D1:FD:B0'
p789
sg7
g774
sa(dp790
g2
I-71
sg3
S'eduroam'
p791
sg5
S'54:75:D0:E7:EF:C0'
p792
sg7
(I283
I369
tp793
sa(dp794
g2
I-73
sg3
S'eduroam'
p795
sg5
S'F4:EA:67:0E:56:D0'
p796
sg7
g793
sa(dp797
g2
I-73
sg3
S'ECS-WLAN'
p798
sg5
S'F4:EA:67:0E:52:21'
p799
sg7
g793
sa(dp800
g2
I-75
sg3
S'ECS-WLAN'
p801
sg5
S'F4:EA:67:0E:56:D1'
p802
sg7
g793
sa(dp803
g2
I-89
sg3
S'ECS-WLAN'
p804
sg5
S'C8:4C:75:D1:FD:B1'
p805
sg7
g793
sa(dp806
g2
I-91
sg3
S'eduroam'
p807
sg5
S'C8:4C:75:D1:FD:B0'
p808
sg7
g793
sa(dp809
g2
I-71
sg3
S'eduroam'
p810
sg5
S'54:75:D0:E7:EF:C0'
p811
sg7
(I341
I60
tp812
sa(dp813
g2
I-73
sg3
S'eduroam'
p814
sg5
S'F4:EA:67:0E:56:D0'
p815
sg7
g812
sa(dp816
g2
I-73
sg3
S'ECS-WLAN'
p817
sg5
S'F4:EA:67:0E:52:21'
p818
sg7
g812
sa(dp819
g2
I-75
sg3
S'ECS-WLAN'
p820
sg5
S'F4:EA:67:0E:56:D1'
p821
sg7
g812
sa(dp822
g2
I-89
sg3
S'ECS-WLAN'
p823
sg5
S'C8:4C:75:D1:FD:B1'
p824
sg7
g812
sa(dp825
g2
I-91
sg3
S'eduroam'
p826
sg5
S'C8:4C:75:D1:FD:B0'
p827
sg7
g812
sa(dp828
g2
I-71
sg3
S'eduroam'
p829
sg5
S'54:75:D0:E7:EF:C0'
p830
sg7
(I341
I117
tp831
sa(dp832
g2
I-73
sg3
S'eduroam'
p833
sg5
S'F4:EA:67:0E:56:D0'
p834
sg7
g831
sa(dp835
g2
I-73
sg3
S'ECS-WLAN'
p836
sg5
S'F4:EA:67:0E:52:21'
p837
sg7
g831
sa(dp838
g2
I-75
sg3
S'ECS-WLAN'
p839
sg5
S'F4:EA:67:0E:56:D1'
p840
sg7
g831
sa(dp841
g2
I-89
sg3
S'ECS-WLAN'
p842
sg5
S'C8:4C:75:D1:FD:B1'
p843
sg7
g831
sa(dp844
g2
I-91
sg3
S'eduroam'
p845
sg5
S'C8:4C:75:D1:FD:B0'
p846
sg7
g831
sa(dp847
g2
I-71
sg3
S'eduroam'
p848
sg5
S'54:75:D0:E7:EF:C0'
p849
sg7
(I489
I56
tp850
sa(dp851
g2
I-73
sg3
S'eduroam'
p852
sg5
S'F4:EA:67:0E:56:D0'
p853
sg7
g850
sa(dp854
g2
I-73
sg3
S'ECS-WLAN'
p855
sg5
S'F4:EA:67:0E:52:21'
p856
sg7
g850
sa(dp857
g2
I-75
sg3
S'ECS-WLAN'
p858
sg5
S'F4:EA:67:0E:56:D1'
p859
sg7
g850
sa(dp860
g2
I-89
sg3
S'ECS-WLAN'
p861
sg5
S'C8:4C:75:D1:FD:B1'
p862
sg7
g850
sa(dp863
g2
I-91
sg3
S'eduroam'
p864
sg5
S'C8:4C:75:D1:FD:B0'
p865
sg7
g850
sa(dp866
g2
I-71
sg3
S'eduroam'
p867
sg5
S'54:75:D0:E7:EF:C0'
p868
sg7
(I648
I56
tp869
sa(dp870
g2
I-73
sg3
S'eduroam'
p871
sg5
S'F4:EA:67:0E:56:D0'
p872
sg7
g869
sa(dp873
g2
I-73
sg3
S'ECS-WLAN'
p874
sg5
S'F4:EA:67:0E:52:21'
p875
sg7
g869
sa(dp876
g2
I-75
sg3
S'ECS-WLAN'
p877
sg5
S'F4:EA:67:0E:56:D1'
p878
sg7
g869
sa(dp879
g2
I-89
sg3
S'ECS-WLAN'
p880
sg5
S'C8:4C:75:D1:FD:B1'
p881
sg7
g869
sa(dp882
g2
I-91
sg3
S'eduroam'
p883
sg5
S'C8:4C:75:D1:FD:B0'
p884
sg7
g869
sa(dp885
g2
I-69
sg3
S'eduroam'
p886
sg5
S'54:75:D0:E7:EF:C0'
p887
sg7
(I495
I238
tp888
sa(dp889
g2
I-69
sg3
S'ECS-WLAN'
p890
sg5
S'54:75:D0:E7:EF:C1'
p891
sg7
g888
sa(dp892
g2
I-71
sg3
S'eduroam'
p893
sg5
S'F4:EA:67:0E:52:20'
p894
sg7
g888
sa(dp895
g2
I-71
sg3
S'ECS-WLAN'
p896
sg5
S'F4:EA:67:0E:52:21'
p897
sg7
g888
sa(dp898
g2
I-83
sg3
S'ECS-WLAN'
p899
sg5
S'C8:4C:75:D1:FD:B1'
p900
sg7
g888
sa(dp901
g2
I-83
sg3
S'eduroam'
p902
sg5
S'C8:4C:75:D1:FD:B0'
p903
sg7
g888
sa(dp904
g2
I-83
sg3
S'ECS-WLAN'
p905
sg5
S'F4:EA:67:0E:56:D1'
p906
sg7
g888
sa(dp907
g2
I-85
sg3
S'ECS-WLAN'
p908
sg5
S'C8:F9:F9:34:4C:11'
p909
sg7
g888
sa(dp910
g2
I-85
sg3
S'eduroam'
p911
sg5
S'C8:F9:F9:34:4C:10'
p912
sg7
g888
sa(dp913
g2
I-69
sg3
S'eduroam'
p914
sg5
S'54:75:D0:E7:EF:C0'
p915
sg7
(I658
I178
tp916
sa(dp917
g2
I-69
sg3
S'ECS-WLAN'
p918
sg5
S'54:75:D0:E7:EF:C1'
p919
sg7
g916
sa(dp920
g2
I-71
sg3
S'eduroam'
p921
sg5
S'F4:EA:67:0E:52:20'
p922
sg7
g916
sa(dp923
g2
I-71
sg3
S'ECS-WLAN'
p924
sg5
S'F4:EA:67:0E:52:21'
p925
sg7
g916
sa(dp926
g2
I-83
sg3
S'ECS-WLAN'
p927
sg5
S'C8:4C:75:D1:FD:B1'
p928
sg7
g916
sa(dp929
g2
I-83
sg3
S'eduroam'
p930
sg5
S'C8:4C:75:D1:FD:B0'
p931
sg7
g916
sa(dp932
g2
I-83
sg3
S'ECS-WLAN'
p933
sg5
S'F4:EA:67:0E:56:D1'
p934
sg7
g916
sa(dp935
g2
I-85
sg3
S'ECS-WLAN'
p936
sg5
S'C8:F9:F9:34:4C:11'
p937
sg7
g916
sa(dp938
g2
I-85
sg3
S'eduroam'
p939
sg5
S'C8:F9:F9:34:4C:10'
p940
sg7
g916
sa(dp941
g2
I-69
sg3
S'eduroam'
p942
sg5
S'54:75:D0:E7:EF:C0'
p943
sg7
(I350
I215
tp944
sa(dp945
g2
I-69
sg3
S'ECS-WLAN'
p946
sg5
S'54:75:D0:E7:EF:C1'
p947
sg7
g944
sa(dp948
g2
I-71
sg3
S'eduroam'
p949
sg5
S'F4:EA:67:0E:52:20'
p950
sg7
g944
sa(dp951
g2
I-71
sg3
S'ECS-WLAN'
p952
sg5
S'F4:EA:67:0E:52:21'
p953
sg7
g944
sa(dp954
g2
I-83
sg3
S'ECS-WLAN'
p955
sg5
S'C8:4C:75:D1:FD:B1'
p956
sg7
g944
sa(dp957
g2
I-83
sg3
S'eduroam'
p958
sg5
S'C8:4C:75:D1:FD:B0'
p959
sg7
g944
sa(dp960
g2
I-83
sg3
S'ECS-WLAN'
p961
sg5
S'F4:EA:67:0E:56:D1'
p962
sg7
g944
sa(dp963
g2
I-85
sg3
S'ECS-WLAN'
p964
sg5
S'C8:F9:F9:34:4C:11'
p965
sg7
g944
sa(dp966
g2
I-85
sg3
S'eduroam'
p967
sg5
S'C8:F9:F9:34:4C:10'
p968
sg7
g944
sa(dp969
g2
I-69
sg3
S'eduroam'
p970
sg5
S'54:75:D0:E7:EF:C0'
p971
sg7
(I496
I145
tp972
sa(dp973
g2
I-69
sg3
S'ECS-WLAN'
p974
sg5
S'54:75:D0:E7:EF:C1'
p975
sg7
g972
sa(dp976
g2
I-71
sg3
S'eduroam'
p977
sg5
S'F4:EA:67:0E:52:20'
p978
sg7
g972
sa(dp979
g2
I-71
sg3
S'ECS-WLAN'
p980
sg5
S'F4:EA:67:0E:52:21'
p981
sg7
g972
sa(dp982
g2
I-83
sg3
S'ECS-WLAN'
p983
sg5
S'C8:4C:75:D1:FD:B1'
p984
sg7
g972
sa(dp985
g2
I-83
sg3
S'eduroam'
p986
sg5
S'C8:4C:75:D1:FD:B0'
p987
sg7
g972
sa(dp988
g2
I-83
sg3
S'ECS-WLAN'
p989
sg5
S'F4:EA:67:0E:56:D1'
p990
sg7
g972
sa(dp991
g2
I-85
sg3
S'ECS-WLAN'
p992
sg5
S'C8:F9:F9:34:4C:11'
p993
sg7
g972
sa(dp994
g2
I-85
sg3
S'eduroam'
p995
sg5
S'C8:F9:F9:34:4C:10'
p996
sg7
g972
sa(dp997
g2
I-71
sg3
S'eduroam'
p998
sg5
S'F4:EA:67:0E:52:20'
p999
sg7
(I660
I122
tp1000
sa(dp1001
g2
I-71
sg3
S'ECS-WLAN'
p1002
sg5
S'F4:EA:67:0E:52:21'
p1003
sg7
g1000
sa(dp1004
g2
I-79
sg3
S'eduroam'
p1005
sg5
S'F4:EA:67:0E:56:D0'
p1006
sg7
g1000
sa(dp1007
g2
I-83
sg3
S'eduroam'
p1008
sg5
S'54:75:D0:E7:EF:C0'
p1009
sg7
g1000
sa(dp1010
g2
I-85
sg3
S'ECS-WLAN'
p1011
sg5
S'C8:F9:F9:34:4C:11'
p1012
sg7
g1000
sa(dp1013
g2
I-85
sg3
S'eduroam'
p1014
sg5
S'C8:F9:F9:34:4C:10'
p1015
sg7
g1000
sa(dp1016
g2
I-87
sg3
S'eduroam'
p1017
sg5
S'C8:4C:75:D1:FD:B0'
p1018
sg7
g1000
sa(dp1019
g2
I-91
sg3
S'ECS-WLAN'
p1020
sg5
S'C8:4C:75:D1:FD:B1'
p1021
sg7
g1000
sa(dp1022
g2
I-71
sg3
S'eduroam'
p1023
sg5
S'F4:EA:67:0E:52:20'
p1024
sg7
(I658
I244
tp1025
sa(dp1026
g2
I-71
sg3
S'ECS-WLAN'
p1027
sg5
S'F4:EA:67:0E:52:21'
p1028
sg7
g1025
sa(dp1029
g2
I-79
sg3
S'eduroam'
p1030
sg5
S'F4:EA:67:0E:56:D0'
p1031
sg7
g1025
sa(dp1032
g2
I-83
sg3
S'eduroam'
p1033
sg5
S'54:75:D0:E7:EF:C0'
p1034
sg7
g1025
sa(dp1035
g2
I-85
sg3
S'ECS-WLAN'
p1036
sg5
S'C8:F9:F9:34:4C:11'
p1037
sg7
g1025
sa(dp1038
g2
I-85
sg3
S'eduroam'
p1039
sg5
S'C8:F9:F9:34:4C:10'
p1040
sg7
g1025
sa(dp1041
g2
I-87
sg3
S'eduroam'
p1042
sg5
S'C8:4C:75:D1:FD:B0'
p1043
sg7
g1025
sa(dp1044
g2
I-91
sg3
S'ECS-WLAN'
p1045
sg5
S'C8:4C:75:D1:FD:B1'
p1046
sg7
g1025
sa(dp1047
g2
I-71
sg3
S'eduroam'
p1048
sg5
S'F4:EA:67:0E:52:20'
p1049
sg7
(I817
I62
tp1050
sa(dp1051
g2
I-71
sg3
S'ECS-WLAN'
p1052
sg5
S'F4:EA:67:0E:52:21'
p1053
sg7
g1050
sa(dp1054
g2
I-79
sg3
S'eduroam'
p1055
sg5
S'F4:EA:67:0E:56:D0'
p1056
sg7
g1050
sa(dp1057
g2
I-83
sg3
S'eduroam'
p1058
sg5
S'54:75:D0:E7:EF:C0'
p1059
sg7
g1050
sa(dp1060
g2
I-85
sg3
S'ECS-WLAN'
p1061
sg5
S'C8:F9:F9:34:4C:11'
p1062
sg7
g1050
sa(dp1063
g2
I-85
sg3
S'eduroam'
p1064
sg5
S'C8:F9:F9:34:4C:10'
p1065
sg7
g1050
sa(dp1066
g2
I-87
sg3
S'eduroam'
p1067
sg5
S'C8:4C:75:D1:FD:B0'
p1068
sg7
g1050
sa(dp1069
g2
I-91
sg3
S'ECS-WLAN'
p1070
sg5
S'C8:4C:75:D1:FD:B1'
p1071
sg7
g1050
sa(dp1072
g2
I-71
sg3
S'eduroam'
p1073
sg5
S'F4:EA:67:0E:52:20'
p1074
sg7
(I1004
I545
tp1075
sa(dp1076
g2
I-71
sg3
S'ECS-WLAN'
p1077
sg5
S'F4:EA:67:0E:52:21'
p1078
sg7
g1075
sa(dp1079
g2
I-79
sg3
S'eduroam'
p1080
sg5
S'F4:EA:67:0E:56:D0'
p1081
sg7
g1075
sa(dp1082
g2
I-83
sg3
S'eduroam'
p1083
sg5
S'54:75:D0:E7:EF:C0'
p1084
sg7
g1075
sa(dp1085
g2
I-85
sg3
S'ECS-WLAN'
p1086
sg5
S'C8:F9:F9:34:4C:11'
p1087
sg7
g1075
sa(dp1088
g2
I-85
sg3
S'eduroam'
p1089
sg5
S'C8:F9:F9:34:4C:10'
p1090
sg7
g1075
sa(dp1091
g2
I-87
sg3
S'eduroam'
p1092
sg5
S'C8:4C:75:D1:FD:B0'
p1093
sg7
g1075
sa(dp1094
g2
I-91
sg3
S'ECS-WLAN'
p1095
sg5
S'C8:4C:75:D1:FD:B1'
p1096
sg7
g1075
sa(dp1097
g2
I-67
sg3
S'eduroam'
p1098
sg5
S'F4:EA:67:0E:52:20'
p1099
sg7
(I821
I154
tp1100
sa(dp1101
g2
I-67
sg3
S'ECS-WLAN'
p1102
sg5
S'F4:EA:67:0E:52:21'
p1103
sg7
g1100
sa(dp1104
g2
I-83
sg3
S'eduroam'
p1105
sg5
S'C8:F9:F9:34:4C:10'
p1106
sg7
g1100
sa(dp1107
g2
I-83
sg3
S'ECS-WLAN'
p1108
sg5
S'54:75:D0:E7:EF:C1'
p1109
sg7
g1100
sa(dp1110
g2
I-87
sg3
S'ECS-WLAN'
p1111
sg5
S'F4:EA:67:0E:56:D1'
p1112
sg7
g1100
sa(dp1113
g2
I-95
sg3
S'eduroam'
p1114
sg5
S'F4:EA:67:0E:56:D0'
p1115
sg7
g1100
sa(dp1116
g2
I-67
sg3
S'eduroam'
p1117
sg5
S'F4:EA:67:0E:52:20'
p1118
sg7
(I972
I166
tp1119
sa(dp1120
g2
I-67
sg3
S'ECS-WLAN'
p1121
sg5
S'F4:EA:67:0E:52:21'
p1122
sg7
g1119
sa(dp1123
g2
I-83
sg3
S'eduroam'
p1124
sg5
S'C8:F9:F9:34:4C:10'
p1125
sg7
g1119
sa(dp1126
g2
I-83
sg3
S'ECS-WLAN'
p1127
sg5
S'54:75:D0:E7:EF:C1'
p1128
sg7
g1119
sa(dp1129
g2
I-87
sg3
S'ECS-WLAN'
p1130
sg5
S'F4:EA:67:0E:56:D1'
p1131
sg7
g1119
sa(dp1132
g2
I-95
sg3
S'eduroam'
p1133
sg5
S'F4:EA:67:0E:56:D0'
p1134
sg7
g1119
sa(dp1135
g2
I-67
sg3
S'eduroam'
p1136
sg5
S'F4:EA:67:0E:52:20'
p1137
sg7
(I828
I263
tp1138
sa(dp1139
g2
I-67
sg3
S'ECS-WLAN'
p1140
sg5
S'F4:EA:67:0E:52:21'
p1141
sg7
g1138
sa(dp1142
g2
I-83
sg3
S'eduroam'
p1143
sg5
S'C8:F9:F9:34:4C:10'
p1144
sg7
g1138
sa(dp1145
g2
I-83
sg3
S'ECS-WLAN'
p1146
sg5
S'54:75:D0:E7:EF:C1'
p1147
sg7
g1138
sa(dp1148
g2
I-87
sg3
S'ECS-WLAN'
p1149
sg5
S'F4:EA:67:0E:56:D1'
p1150
sg7
g1138
sa(dp1151
g2
I-95
sg3
S'eduroam'
p1152
sg5
S'F4:EA:67:0E:56:D0'
p1153
sg7
g1138
sa(dp1154
g2
I-61
sg3
S'eduroam'
p1155
sg5
S'F4:EA:67:0E:52:20'
p1156
sg7
(I979
I73
tp1157
sa(dp1158
g2
I-61
sg3
S'ECS-WLAN'
p1159
sg5
S'F4:EA:67:0E:52:21'
p1160
sg7
g1157
sa(dp1161
g2
I-63
sg3
S'eduroam'
p1162
sg5
S'C8:F9:F9:34:4C:10'
p1163
sg7
g1157
sa(dp1164
g2
I-65
sg3
S'ECS-WLAN'
p1165
sg5
S'C8:F9:F9:34:4C:11'
p1166
sg7
g1157
sa(dp1167
g2
I-85
sg3
S'eduroam'
p1168
sg5
S'54:75:D0:E7:EF:C0'
p1169
sg7
g1157
sa(dp1170
g2
I-91
sg3
S'ECS-WLAN'
p1171
sg5
S'54:75:D0:E7:EF:C1'
p1172
sg7
g1157
sa(dp1173
g2
I-61
sg3
S'eduroam'
p1174
sg5
S'F4:EA:67:0E:52:20'
p1175
sg7
(I1062
I111
tp1176
sa(dp1177
g2
I-61
sg3
S'ECS-WLAN'
p1178
sg5
S'F4:EA:67:0E:52:21'
p1179
sg7
g1176
sa(dp1180
g2
I-63
sg3
S'eduroam'
p1181
sg5
S'C8:F9:F9:34:4C:10'
p1182
sg7
g1176
sa(dp1183
g2
I-65
sg3
S'ECS-WLAN'
p1184
sg5
S'C8:F9:F9:34:4C:11'
p1185
sg7
g1176
sa(dp1186
g2
I-85
sg3
S'eduroam'
p1187
sg5
S'54:75:D0:E7:EF:C0'
p1188
sg7
g1176
sa(dp1189
g2
I-91
sg3
S'ECS-WLAN'
p1190
sg5
S'54:75:D0:E7:EF:C1'
p1191
sg7
g1176
sa(dp1192
g2
I-61
sg3
S'eduroam'
p1193
sg5
S'F4:EA:67:0E:52:20'
p1194
sg7
(I1033
I287
tp1195
sa(dp1196
g2
I-61
sg3
S'ECS-WLAN'
p1197
sg5
S'F4:EA:67:0E:52:21'
p1198
sg7
g1195
sa(dp1199
g2
I-63
sg3
S'eduroam'
p1200
sg5
S'C8:F9:F9:34:4C:10'
p1201
sg7
g1195
sa(dp1202
g2
I-65
sg3
S'ECS-WLAN'
p1203
sg5
S'C8:F9:F9:34:4C:11'
p1204
sg7
g1195
sa(dp1205
g2
I-85
sg3
S'eduroam'
p1206
sg5
S'54:75:D0:E7:EF:C0'
p1207
sg7
g1195
sa(dp1208
g2
I-91
sg3
S'ECS-WLAN'
p1209
sg5
S'54:75:D0:E7:EF:C1'
p1210
sg7
g1195
sa(dp1211
g2
I-61
sg3
S'eduroam'
p1212
sg5
S'F4:EA:67:0E:52:20'
p1213
sg7
(I947
I261
tp1214
sa(dp1215
g2
I-61
sg3
S'ECS-WLAN'
p1216
sg5
S'F4:EA:67:0E:52:21'
p1217
sg7
g1214
sa(dp1218
g2
I-63
sg3
S'eduroam'
p1219
sg5
S'C8:F9:F9:34:4C:10'
p1220
sg7
g1214
sa(dp1221
g2
I-65
sg3
S'ECS-WLAN'
p1222
sg5
S'C8:F9:F9:34:4C:11'
p1223
sg7
g1214
sa(dp1224
g2
I-85
sg3
S'eduroam'
p1225
sg5
S'54:75:D0:E7:EF:C0'
p1226
sg7
g1214
sa(dp1227
g2
I-91
sg3
S'ECS-WLAN'
p1228
sg5
S'54:75:D0:E7:EF:C1'
p1229
sg7
g1214
sa(dp1230
g2
I-45
sg3
S'ECS-WLAN'
p1231
sg5
S'54:75:D0:E7:EF:C1'
p1232
sg7
(I684
I508
tp1233
sa(dp1234
g2
I-73
sg3
S'ECS-WLAN'
p1235
sg5
S'C8:4C:75:D1:FF:31'
p1236
sg7
g1233
sa(dp1237
g2
I-73
sg3
S'ECS-WLAN'
p1238
sg5
S'C8:4C:75:D1:FD:B1'
p1239
sg7
g1233
sa(dp1240
g2
I-73
sg3
S'eduroam'
p1241
sg5
S'C8:4C:75:D1:FF:30'
p1242
sg7
g1233
sa(dp1243
g2
I-79
sg3
S'ECS-WLAN'
p1244
sg5
S'F4:EA:67:0E:52:21'
p1245
sg7
g1233
sa(dp1246
g2
I-79
sg3
S'eduroam'
p1247
sg5
S'F4:EA:67:0E:52:20'
p1248
sg7
g1233
sa(dp1249
g2
I-45
sg3
S'ECS-WLAN'
p1250
sg5
S'54:75:D0:E7:EF:C1'
p1251
sg7
(I517
I508
tp1252
sa(dp1253
g2
I-73
sg3
S'ECS-WLAN'
p1254
sg5
S'C8:4C:75:D1:FF:31'
p1255
sg7
g1252
sa(dp1256
g2
I-73
sg3
S'ECS-WLAN'
p1257
sg5
S'C8:4C:75:D1:FD:B1'
p1258
sg7
g1252
sa(dp1259
g2
I-73
sg3
S'eduroam'
p1260
sg5
S'C8:4C:75:D1:FF:30'
p1261
sg7
g1252
sa(dp1262
g2
I-79
sg3
S'ECS-WLAN'
p1263
sg5
S'F4:EA:67:0E:52:21'
p1264
sg7
g1252
sa(dp1265
g2
I-79
sg3
S'eduroam'
p1266
sg5
S'F4:EA:67:0E:52:20'
p1267
sg7
g1252
sa(dp1268
g2
I-45
sg3
S'ECS-WLAN'
p1269
sg5
S'54:75:D0:E7:EF:C1'
p1270
sg7
(I572
I511
tp1271
sa(dp1272
g2
I-73
sg3
S'ECS-WLAN'
p1273
sg5
S'C8:4C:75:D1:FF:31'
p1274
sg7
g1271
sa(dp1275
g2
I-73
sg3
S'ECS-WLAN'
p1276
sg5
S'C8:4C:75:D1:FD:B1'
p1277
sg7
g1271
sa(dp1278
g2
I-73
sg3
S'eduroam'
p1279
sg5
S'C8:4C:75:D1:FF:30'
p1280
sg7
g1271
sa(dp1281
g2
I-79
sg3
S'ECS-WLAN'
p1282
sg5
S'F4:EA:67:0E:52:21'
p1283
sg7
g1271
sa(dp1284
g2
I-79
sg3
S'eduroam'
p1285
sg5
S'F4:EA:67:0E:52:20'
p1286
sg7
g1271
sa(dp1287
g2
I-37
sg3
S'ECS-WLAN'
p1288
sg5
S'54:75:D0:E7:EF:C1'
p1289
sg7
(I441
I497
tp1290
sa(dp1291
g2
I-67
sg3
S'ECS-WLAN'
p1292
sg5
S'C8:4C:75:D1:FF:31'
p1293
sg7
g1290
sa(dp1294
g2
I-67
sg3
S'ECS-WLAN'
p1295
sg5
S'C8:4C:75:D1:FD:B1'
p1296
sg7
g1290
sa(dp1297
g2
I-67
sg3
S'eduroam'
p1298
sg5
S'C8:4C:75:D1:FF:30'
p1299
sg7
g1290
sa(dp1300
g2
I-67
sg3
S'eduroam'
p1301
sg5
S'C8:4C:75:D1:FD:B0'
p1302
sg7
g1290
sa(dp1303
g2
I-87
sg3
S'eduroam'
p1304
sg5
S'F4:EA:67:0E:52:20'
p1305
sg7
g1290
sa(dp1306
g2
I-37
sg3
S'ECS-WLAN'
p1307
sg5
S'54:75:D0:E7:EF:C1'
p1308
sg7
(I415
I512
tp1309
sa(dp1310
g2
I-67
sg3
S'ECS-WLAN'
p1311
sg5
S'C8:4C:75:D1:FF:31'
p1312
sg7
g1309
sa(dp1313
g2
I-67
sg3
S'ECS-WLAN'
p1314
sg5
S'C8:4C:75:D1:FD:B1'
p1315
sg7
g1309
sa(dp1316
g2
I-67
sg3
S'eduroam'
p1317
sg5
S'C8:4C:75:D1:FF:30'
p1318
sg7
g1309
sa(dp1319
g2
I-67
sg3
S'eduroam'
p1320
sg5
S'C8:4C:75:D1:FD:B0'
p1321
sg7
g1309
sa(dp1322
g2
I-87
sg3
S'eduroam'
p1323
sg5
S'F4:EA:67:0E:52:20'
p1324
sg7
g1309
sa(dp1325
S'BSSID'
p1326
S'54:75:D0:E7:EF:C1'
p1327
sS'ESSID'
p1328
S'ECS-WLAN'
p1329
sS'power'
p1330
I-33
sS'point'
p1331
(I375
I510
tp1332
sa(dp1333
g1326
S'54:75:D0:E7:EF:C0'
p1334
sg1328
S'eduroam'
p1335
sg1330
I-35
sg1331
g1332
sa(dp1336
g1326
S'C8:4C:75:D1:FF:30'
p1337
sg1328
S'eduroam'
p1338
sg1330
I-59
sg1331
g1332
sa(dp1339
g1326
S'C8:4C:75:D1:FF:31'
p1340
sg1328
S'ECS-WLAN'
p1341
sg1330
I-61
sg1331
g1332
sa(dp1342
g1326
S'C8:4C:75:D1:FD:B0'
p1343
sg1328
S'eduroam'
p1344
sg1330
I-75
sg1331
g1332
sa(dp1345
g1326
S'C8:4C:75:D1:FD:B1'
p1346
sg1328
S'ECS-WLAN'
p1347
sg1330
I-75
sg1331
g1332
sa(dp1348
g1326
S'A0:CF:5B:0F:96:21'
p1349
sg1328
S'ECS-WLAN'
p1350
sg1330
I-89
sg1331
g1332
sa(dp1351
g1326
S'A0:CF:5B:0F:96:20'
p1352
sg1328
S'eduroam'
p1353
sg1330
I-91
sg1331
g1332
sa(dp1354
g1326
S'F4:EA:67:0E:56:D1'
p1355
sg1328
S'ECS-WLAN'
p1356
sg1330
I-91
sg1331
g1332
sa(dp1357
g1326
S'54:75:D0:E7:EF:C1'
p1358
sg1328
S'ECS-WLAN'
p1359
sg1330
I-33
sg1331
(I329
I514
tp1360
sa(dp1361
g1326
S'54:75:D0:E7:EF:C0'
p1362
sg1328
S'eduroam'
p1363
sg1330
I-35
sg1331
g1360
sa(dp1364
g1326
S'C8:4C:75:D1:FF:30'
p1365
sg1328
S'eduroam'
p1366
sg1330
I-59
sg1331
g1360
sa(dp1367
g1326
S'C8:4C:75:D1:FF:31'
p1368
sg1328
S'ECS-WLAN'
p1369
sg1330
I-61
sg1331
g1360
sa(dp1370
g1326
S'C8:4C:75:D1:FD:B0'
p1371
sg1328
S'eduroam'
p1372
sg1330
I-75
sg1331
g1360
sa(dp1373
g1326
S'C8:4C:75:D1:FD:B1'
p1374
sg1328
S'ECS-WLAN'
p1375
sg1330
I-75
sg1331
g1360
sa(dp1376
g1326
S'A0:CF:5B:0F:96:21'
p1377
sg1328
S'ECS-WLAN'
p1378
sg1330
I-89
sg1331
g1360
sa(dp1379
g1326
S'A0:CF:5B:0F:96:20'
p1380
sg1328
S'eduroam'
p1381
sg1330
I-91
sg1331
g1360
sa(dp1382
g1326
S'F4:EA:67:0E:56:D1'
p1383
sg1328
S'ECS-WLAN'
p1384
sg1330
I-91
sg1331
g1360
sa(dp1385
g1326
S'54:75:D0:E7:EF:C1'
p1386
sg1328
S'ECS-WLAN'
p1387
sg1330
I-33
sg1331
(I284
I507
tp1388
sa(dp1389
g1326
S'54:75:D0:E7:EF:C0'
p1390
sg1328
S'eduroam'
p1391
sg1330
I-35
sg1331
g1388
sa(dp1392
g1326
S'C8:4C:75:D1:FF:30'
p1393
sg1328
S'eduroam'
p1394
sg1330
I-59
sg1331
g1388
sa(dp1395
g1326
S'C8:4C:75:D1:FF:31'
p1396
sg1328
S'ECS-WLAN'
p1397
sg1330
I-61
sg1331
g1388
sa(dp1398
g1326
S'C8:4C:75:D1:FD:B0'
p1399
sg1328
S'eduroam'
p1400
sg1330
I-75
sg1331
g1388
sa(dp1401
g1326
S'C8:4C:75:D1:FD:B1'
p1402
sg1328
S'ECS-WLAN'
p1403
sg1330
I-75
sg1331
g1388
sa(dp1404
g1326
S'A0:CF:5B:0F:96:21'
p1405
sg1328
S'ECS-WLAN'
p1406
sg1330
I-89
sg1331
g1388
sa(dp1407
g1326
S'A0:CF:5B:0F:96:20'
p1408
sg1328
S'eduroam'
p1409
sg1330
I-91
sg1331
g1388
sa(dp1410
g1326
S'F4:EA:67:0E:56:D1'
p1411
sg1328
S'ECS-WLAN'
p1412
sg1330
I-91
sg1331
g1388
sa(dp1413
g1326
S'54:75:D0:E7:EF:C0'
p1414
sg1328
S'eduroam'
p1415
sg1330
I-53
sg1331
(I280
I457
tp1416
sa(dp1417
g1326
S'54:75:D0:E7:EF:C1'
p1418
sg1328
S'ECS-WLAN'
p1419
sg1330
I-55
sg1331
g1416
sa(dp1420
g1326
S'C8:4C:75:D1:FD:B1'
p1421
sg1328
S'ECS-WLAN'
p1422
sg1330
I-73
sg1331
g1416
sa(dp1423
g1326
S'C8:4C:75:D1:FD:B0'
p1424
sg1328
S'eduroam'
p1425
sg1330
I-73
sg1331
g1416
sa(dp1426
g1326
S'F4:EA:67:0E:56:D1'
p1427
sg1328
S'ECS-WLAN'
p1428
sg1330
I-85
sg1331
g1416
sa(dp1429
g1326
S'54:75:D0:E7:EF:C0'
p1430
sg1328
S'eduroam'
p1431
sg1330
I-53
sg1331
(I280
I457
tp1432
sa(dp1433
g1326
S'54:75:D0:E7:EF:C1'
p1434
sg1328
S'ECS-WLAN'
p1435
sg1330
I-55
sg1331
g1432
sa(dp1436
g1326
S'C8:4C:75:D1:FD:B1'
p1437
sg1328
S'ECS-WLAN'
p1438
sg1330
I-73
sg1331
g1432
sa(dp1439
g1326
S'C8:4C:75:D1:FD:B0'
p1440
sg1328
S'eduroam'
p1441
sg1330
I-73
sg1331
g1432
sa(dp1442
g1326
S'F4:EA:67:0E:56:D1'
p1443
sg1328
S'ECS-WLAN'
p1444
sg1330
I-85
sg1331
g1432
sa(dp1445
g1326
S'54:75:D0:E7:EF:C0'
p1446
sg1328
S'eduroam'
p1447
sg1330
I-53
sg1331
(I311
I636
tp1448
sa(dp1449
g1326
S'54:75:D0:E7:EF:C1'
p1450
sg1328
S'ECS-WLAN'
p1451
sg1330
I-53
sg1331
g1448
sa(dp1452
g1326
S'C8:4C:75:D1:FD:B0'
p1453
sg1328
S'eduroam'
p1454
sg1330
I-77
sg1331
g1448
sa(dp1455
g1326
S'C8:4C:75:D1:FD:B1'
p1456
sg1328
S'ECS-WLAN'
p1457
sg1330
I-77
sg1331
g1448
sa(dp1458
g1326
S'C8:4C:75:D1:FF:30'
p1459
sg1328
S'eduroam'
p1460
sg1330
I-83
sg1331
g1448
sa(dp1461
g1326
S'C8:4C:75:D1:FF:31'
p1462
sg1328
S'ECS-WLAN'
p1463
sg1330
I-85
sg1331
g1448
sa(dp1464
g1326
S'54:75:D0:E7:EF:C0'
p1465
sg1328
S'eduroam'
p1466
sg1330
I-53
sg1331
(I306
I595
tp1467
sa(dp1468
g1326
S'54:75:D0:E7:EF:C1'
p1469
sg1328
S'ECS-WLAN'
p1470
sg1330
I-53
sg1331
g1467
sa(dp1471
g1326
S'C8:4C:75:D1:FD:B0'
p1472
sg1328
S'eduroam'
p1473
sg1330
I-77
sg1331
g1467
sa(dp1474
g1326
S'C8:4C:75:D1:FD:B1'
p1475
sg1328
S'ECS-WLAN'
p1476
sg1330
I-77
sg1331
g1467
sa(dp1477
g1326
S'C8:4C:75:D1:FF:30'
p1478
sg1328
S'eduroam'
p1479
sg1330
I-83
sg1331
g1467
sa(dp1480
g1326
S'54:75:D0:E7:EF:C1'
p1481
sg1328
S'ECS-WLAN'
p1482
sg1330
I-47
sg1331
(I70
I508
tp1483
sa(dp1484
g1326
S'C8:4C:75:D1:FF:30'
p1485
sg1328
S'eduroam'
p1486
sg1330
I-53
sg1331
g1483
sa(dp1487
g1326
S'C8:4C:75:D1:FF:31'
p1488
sg1328
S'ECS-WLAN'
p1489
sg1330
I-53
sg1331
g1483
sa(dp1490
g1326
S'C8:4C:75:D1:FD:B0'
p1491
sg1328
S'eduroam'
p1492
sg1330
I-73
sg1331
g1483
sa(dp1493
g1326
S'C8:4C:75:D1:FD:B1'
p1494
sg1328
S'ECS-WLAN'
p1495
sg1330
I-73
sg1331
g1483
sa(dp1496
g1326
S'F4:EA:67:0E:52:20'
p1497
sg1328
S'eduroam'
p1498
sg1330
I-83
sg1331
g1483
sa(dp1499
g1326
S'A0:CF:5B:0F:96:21'
p1500
sg1328
S'ECS-WLAN'
p1501
sg1330
I-85
sg1331
g1483
sa(dp1502
g1326
S'A0:CF:5B:0F:96:20'
p1503
sg1328
S'eduroam'
p1504
sg1330
I-87
sg1331
g1483
sa(dp1505
g1326
S'54:75:D0:E7:EF:C1'
p1506
sg1328
S'ECS-WLAN'
p1507
sg1330
I-47
sg1331
(I132
I513
tp1508
sa(dp1509
g1326
S'C8:4C:75:D1:FF:30'
p1510
sg1328
S'eduroam'
p1511
sg1330
I-53
sg1331
g1508
sa(dp1512
g1326
S'C8:4C:75:D1:FF:31'
p1513
sg1328
S'ECS-WLAN'
p1514
sg1330
I-53
sg1331
g1508
sa(dp1515
g1326
S'C8:4C:75:D1:FD:B0'
p1516
sg1328
S'eduroam'
p1517
sg1330
I-73
sg1331
g1508
sa(dp1518
g1326
S'C8:4C:75:D1:FD:B1'
p1519
sg1328
S'ECS-WLAN'
p1520
sg1330
I-73
sg1331
g1508
sa(dp1521
g1326
S'F4:EA:67:0E:52:20'
p1522
sg1328
S'eduroam'
p1523
sg1330
I-83
sg1331
g1508
sa(dp1524
g1326
S'A0:CF:5B:0F:96:21'
p1525
sg1328
S'ECS-WLAN'
p1526
sg1330
I-85
sg1331
g1508
sa(dp1527
g1326
S'A0:CF:5B:0F:96:20'
p1528
sg1328
S'eduroam'
p1529
sg1330
I-87
sg1331
g1508
sa(dp1530
g1326
S'54:75:D0:E7:EF:C1'
p1531
sg1328
S'ECS-WLAN'
p1532
sg1330
I-47
sg1331
(I202
I514
tp1533
sa(dp1534
g1326
S'C8:4C:75:D1:FF:30'
p1535
sg1328
S'eduroam'
p1536
sg1330
I-53
sg1331
g1533
sa(dp1537
g1326
S'C8:4C:75:D1:FF:31'
p1538
sg1328
S'ECS-WLAN'
p1539
sg1330
I-53
sg1331
g1533
sa(dp1540
g1326
S'C8:4C:75:D1:FD:B0'
p1541
sg1328
S'eduroam'
p1542
sg1330
I-73
sg1331
g1533
sa(dp1543
g1326
S'C8:4C:75:D1:FD:B1'
p1544
sg1328
S'ECS-WLAN'
p1545
sg1330
I-73
sg1331
g1533
sa(dp1546
g1326
S'F4:EA:67:0E:52:20'
p1547
sg1328
S'eduroam'
p1548
sg1330
I-83
sg1331
g1533
sa(dp1549
g1326
S'A0:CF:5B:0F:96:21'
p1550
sg1328
S'ECS-WLAN'
p1551
sg1330
I-85
sg1331
g1533
sa(dp1552
g1326
S'A0:CF:5B:0F:96:20'
p1553
sg1328
S'eduroam'
p1554
sg1330
I-87
sg1331
g1533
sa(dp1555
g1326
S'54:75:D0:E7:EF:C0'
p1556
sg1328
S'eduroam'
p1557
sg1330
I-67
sg1331
(I648
I632
tp1558
sa(dp1559
g1326
S'54:75:D0:E7:EF:C1'
p1560
sg1328
S'ECS-WLAN'
p1561
sg1330
I-67
sg1331
g1558
sa(dp1562
g1326
S'F4:EA:67:0E:52:21'
p1563
sg1328
S'ECS-WLAN'
p1564
sg1330
I-87
sg1331
g1558
sa(dp1565
g1326
S'F4:EA:67:0E:52:20'
p1566
sg1328
S'eduroam'
p1567
sg1330
I-87
sg1331
g1558
sa(dp1568
g1326
S'54:75:D0:E7:EF:C0'
p1569
sg1328
S'eduroam'
p1570
sg1330
I-67
sg1331
(I649
I596
tp1571
sa(dp1572
g1326
S'54:75:D0:E7:EF:C1'
p1573
sg1328
S'ECS-WLAN'
p1574
sg1330
I-67
sg1331
g1571
sa(dp1575
g1326
S'F4:EA:67:0E:52:21'
p1576
sg1328
S'ECS-WLAN'
p1577
sg1330
I-87
sg1331
g1571
sa(dp1578
g1326
S'F4:EA:67:0E:52:20'
p1579
sg1328
S'eduroam'
p1580
sg1330
I-87
sg1331
g1571
sa(dp1581
g1326
S'F4:EA:67:0E:52:21'
p1582
sg1328
S'ECS-WLAN'
p1583
sg1330
I-59
sg1331
(I860
I359
tp1584
sa(dp1585
g1326
S'F4:EA:67:0E:52:20'
p1586
sg1328
S'eduroam'
p1587
sg1330
I-59
sg1331
g1584
sa(dp1588
g1326
S'C8:F9:F9:34:4C:11'
p1589
sg1328
S'ECS-WLAN'
p1590
sg1330
I-73
sg1331
g1584
sa(dp1591
g1326
S'C8:4C:75:D1:FF:31'
p1592
sg1328
S'ECS-WLAN'
p1593
sg1330
I-75
sg1331
g1584
sa(dp1594
g1326
S'C8:F9:F9:34:4C:10'
p1595
sg1328
S'eduroam'
p1596
sg1330
I-75
sg1331
g1584
sa(dp1597
g1326
S'54:75:D0:E7:EF:C0'
p1598
sg1328
S'eduroam'
p1599
sg1330
I-83
sg1331
g1584
sa(dp1600
g1326
S'54:75:D0:E7:EF:C1'
p1601
sg1328
S'ECS-WLAN'
p1602
sg1330
I-85
sg1331
g1584
sa(dp1603
g1326
S'F4:EA:67:0E:55:70'
p1604
sg1328
S'eduroam'
p1605
sg1330
I-63
sg1331
(I1467
I54
tp1606
sa(dp1607
g1326
S'F4:EA:67:0E:55:71'
p1608
sg1328
S'ECS-WLAN'
p1609
sg1330
I-63
sg1331
g1606
sa(dp1610
g1326
S'F4:EA:67:0E:55:70'
p1611
sg1328
S'eduroam'
p1612
sg1330
I-63
sg1331
(I1391
I55
tp1613
sa(dp1614
g1326
S'F4:EA:67:0E:55:71'
p1615
sg1328
S'ECS-WLAN'
p1616
sg1330
I-63
sg1331
g1613
sa(dp1617
g1326
S'54:75:D0:A4:D8:A0'
p1618
sg1328
S'eduroam'
p1619
sg1330
I-79
sg1331
(I1391
I55
tp1620
sa(dp1621
g1326
S'C8:4C:75:D1:FF:30'
p1622
sg1328
S'eduroam'
p1623
sg1330
I-83
sg1331
g1620
sa(dp1624
g1326
S'C8:4C:75:D1:FF:31'
p1625
sg1328
S'ECS-WLAN'
p1626
sg1330
I-83
sg1331
g1620
sa(dp1627
g1326
S'F4:EA:67:0E:55:70'
p1628
sg1328
S'eduroam'
p1629
sg1330
I-87
sg1331
g1620
sa(dp1630
g1326
S'54:75:D0:E7:EF:C0'
p1631
sg1328
S'eduroam'
p1632
sg1330
I-87
sg1331
g1620
sa(dp1633
g1326
S'54:75:D0:E7:EF:C1'
p1634
sg1328
S'ECS-WLAN'
p1635
sg1330
I-87
sg1331
g1620
sa(dp1636
g1326
S'F4:EA:67:0E:55:71'
p1637
sg1328
S'ECS-WLAN'
p1638
sg1330
I-89
sg1331
g1620
sa(dp1639
g1326
S'F4:EA:67:0E:52:20'
p1640
sg1328
S'eduroam'
p1641
sg1330
I-89
sg1331
g1620
sa.